TN:
SF:/home/eufrosty/Desktop/vs/2026_Analysis_ONRL/ONRL/src/console.cpp
FN:100,102,_ZN3gfx7Console10get_windowEv
FN:104,110,_ZN3gfx7Console9set_glyphEjjNS0_7glyph_tE
FN:112,118,_ZNK3gfx7Console9get_glyphEjj
FN:130,148,_ZN3gfx7Console10set_regionEjjjjSt6vectorINS0_7glyph_tESaIS2_EE
FN:150,157,_ZNK3gfx7Console17get_mouse_tile_xyEv
FN:159,159,_ZN3gfx7Console10poll_eventERN2sf5EventE
FN:6,64,_ZN3gfx7ConsoleC2EjjNSt7__cxx1112basic_stringIcSt11char_traitsIcESaIcEEEj
FN:66,94,_ZN3gfx7Console6renderEv
FN:96,98,_ZN3gfx7Console14window_displayEv
FNDA:1,_ZN3gfx7Console10get_windowEv
FNDA:5,_ZN3gfx7Console9set_glyphEjjNS0_7glyph_tE
FNDA:9,_ZNK3gfx7Console9get_glyphEjj
FNDA:1,_ZN3gfx7Console10set_regionEjjjjSt6vectorINS0_7glyph_tESaIS2_EE
FNDA:0,_ZNK3gfx7Console17get_mouse_tile_xyEv
FNDA:0,_ZN3gfx7Console10poll_eventERN2sf5EventE
FNDA:12,_ZN3gfx7ConsoleC2EjjNSt7__cxx1112basic_stringIcSt11char_traitsIcESaIcEEEj
FNDA:4,_ZN3gfx7Console6renderEv
FNDA:4,_ZN3gfx7Console14window_displayEv
FNF:9
FNH:7
DA:6,12
DA:7,12
DA:8,0
DA:12,12
DA:13,12
DA:14,12
DA:15,12
DA:16,12
DA:19,36
DA:20,48
DA:22,12
DA:24,12
DA:25,12
DA:28,12
DA:29,12
DA:32,12
DA:33,36
DA:34,48
DA:35,12
DA:44,24
DA:46,12
DA:47,12
DA:53,12
DA:56,8812
DA:57,8800
DA:58,8800
DA:59,8800
DA:60,8800
DA:64,12
DA:66,4
DA:67,4
DA:75,4
DA:76,4
DA:77,4
DA:79,4
DA:80,4
DA:82,8004
DA:83,8000
DA:84,8000
DA:86,8000
DA:87,8000
DA:88,8000
DA:89,8000
DA:90,8000
DA:91,8000
DA:92,8000
DA:94,4
DA:96,4
DA:97,4
DA:98,4
DA:100,1
DA:101,1
DA:104,5
DA:105,5
DA:106,8
DA:107,9
DA:109,4
DA:110,4
DA:112,9
DA:113,9
DA:114,8
DA:115,9
DA:117,8
DA:130,1
DA:131,1
DA:132,0
DA:133,0
DA:135,1
DA:136,0
DA:137,0
DA:138,0
DA:140,1
DA:141,0
DA:142,0
DA:143,0
DA:145,5
DA:146,4
DA:148,1
DA:150,0
DA:151,0
DA:152,0
DA:153,0
DA:154,0
DA:155,0
DA:156,0
DA:159,0
LF:86
LH:69
end_of_record
TN:
SF:/home/eufrosty/Desktop/vs/2026_Analysis_ONRL/ONRL/src/console.h
FNF:0
FNH:0
LF:0
LH:0
end_of_record
TN:
SF:/home/eufrosty/Desktop/vs/2026_Analysis_ONRL/ONRL/src/util.cpp
FN:10,13,_ZN4util15halt_catch_fireENSt7__cxx1112basic_stringIcSt11char_traitsIcESaIcEEESt15source_location
FN:15,17,_ZN4util8distanceEN2sf7Vector2IjEES2_
FN:20,48,_ZN4util2sf9to_stringB5cxx11EN2sf5Event9EventTypeE
FN:6,8,_ZN4util3logENSt7__cxx1112basic_stringIcSt11char_traitsIcESaIcEEESt15source_location
FNDA:3,_ZN4util15halt_catch_fireENSt7__cxx1112basic_stringIcSt11char_traitsIcESaIcEEESt15source_location
FNDA:2,_ZN4util8distanceEN2sf7Vector2IjEES2_
FNDA:3,_ZN4util2sf9to_stringB5cxx11EN2sf5Event9EventTypeE
FNDA:51,_ZN4util3logENSt7__cxx1112basic_stringIcSt11char_traitsIcESaIcEEESt15source_location
FNF:4
FNH:4
DA:6,51
DA:7,51
DA:8,51
DA:10,3
DA:11,3
DA:12,3
DA:15,2
DA:16,2
DA:20,3
DA:21,3
DA:22,3
DA:23,0
DA:24,0
DA:25,0
DA:26,0
DA:27,3
DA:28,0
DA:29,0
DA:30,0
DA:31,0
DA:32,0
DA:33,3
DA:34,0
DA:35,0
DA:36,0
DA:37,0
DA:38,0
DA:39,0
DA:40,0
DA:41,0
DA:42,0
DA:43,0
DA:44,0
DA:45,0
DA:46,0
LF:35
LH:13
end_of_record
TN:
SF:/home/eufrosty/Desktop/vs/2026_Analysis_ONRL/tools/unit-tests/test_console.cpp
FN:11,11,_ZN31ConsoleTest_SetAndGetGlyph_Test8TestBodyEv
FN:11,11,_ZN31ConsoleTest_SetAndGetGlyph_TestC2Ev
FN:11,11,_ZN31ConsoleTest_SetAndGetGlyph_TestD0Ev
FN:11,11,_ZN31ConsoleTest_SetAndGetGlyph_TestD2Ev
FN:23,23,_ZN36ConsoleTest_SetGlyphOutOfBounds_Test8TestBodyEv
FN:23,23,_ZN36ConsoleTest_SetGlyphOutOfBounds_TestC2Ev
FN:23,23,_ZN36ConsoleTest_SetGlyphOutOfBounds_TestD0Ev
FN:23,23,_ZN36ConsoleTest_SetGlyphOutOfBounds_TestD2Ev
FN:29,29,_ZN36ConsoleTest_GetGlyphOutOfBounds_Test8TestBodyEv
FN:29,29,_ZN36ConsoleTest_GetGlyphOutOfBounds_TestC2Ev
FN:29,29,_ZN36ConsoleTest_GetGlyphOutOfBounds_TestD0Ev
FN:29,29,_ZN36ConsoleTest_GetGlyphOutOfBounds_TestD2Ev
FN:34,34,_ZN26ConsoleTest_GetWindow_Test8TestBodyEv
FN:34,34,_ZN26ConsoleTest_GetWindow_TestC2Ev
FN:34,34,_ZN26ConsoleTest_GetWindow_TestD0Ev
FN:34,34,_ZN26ConsoleTest_GetWindow_TestD2Ev
FN:4,4,_ZN30ConsoleTest_CreateConsole_Test8TestBodyEv
FN:4,4,_ZN30ConsoleTest_CreateConsole_TestC2Ev
FN:4,4,_ZN30ConsoleTest_CreateConsole_TestD0Ev
FN:4,4,_ZN30ConsoleTest_CreateConsole_TestD2Ev
FN:40,40,_ZN26ConsoleTest_SetRegion_Test8TestBodyEv
FN:40,40,_ZN26ConsoleTest_SetRegion_TestC2Ev
FN:40,40,_ZN26ConsoleTest_SetRegion_TestD0Ev
FN:40,40,_ZN26ConsoleTest_SetRegion_TestD2Ev
FNDA:1,_ZN31ConsoleTest_SetAndGetGlyph_Test8TestBodyEv
FNDA:1,_ZN31ConsoleTest_SetAndGetGlyph_TestC2Ev
FNDA:1,_ZN31ConsoleTest_SetAndGetGlyph_TestD0Ev
FNDA:1,_ZN31ConsoleTest_SetAndGetGlyph_TestD2Ev
FNDA:1,_ZN36ConsoleTest_SetGlyphOutOfBounds_Test8TestBodyEv
FNDA:1,_ZN36ConsoleTest_SetGlyphOutOfBounds_TestC2Ev
FNDA:1,_ZN36ConsoleTest_SetGlyphOutOfBounds_TestD0Ev
FNDA:1,_ZN36ConsoleTest_SetGlyphOutOfBounds_TestD2Ev
FNDA:1,_ZN36ConsoleTest_GetGlyphOutOfBounds_Test8TestBodyEv
FNDA:1,_ZN36ConsoleTest_GetGlyphOutOfBounds_TestC2Ev
FNDA:1,_ZN36ConsoleTest_GetGlyphOutOfBounds_TestD0Ev
FNDA:1,_ZN36ConsoleTest_GetGlyphOutOfBounds_TestD2Ev
FNDA:1,_ZN26ConsoleTest_GetWindow_Test8TestBodyEv
FNDA:1,_ZN26ConsoleTest_GetWindow_TestC2Ev
FNDA:1,_ZN26ConsoleTest_GetWindow_TestD0Ev
FNDA:1,_ZN26ConsoleTest_GetWindow_TestD2Ev
FNDA:1,_ZN30ConsoleTest_CreateConsole_Test8TestBodyEv
FNDA:1,_ZN30ConsoleTest_CreateConsole_TestC2Ev
FNDA:1,_ZN30ConsoleTest_CreateConsole_TestD0Ev
FNDA:1,_ZN30ConsoleTest_CreateConsole_TestD2Ev
FNDA:1,_ZN26ConsoleTest_SetRegion_Test8TestBodyEv
FNDA:1,_ZN26ConsoleTest_SetRegion_TestC2Ev
FNDA:1,_ZN26ConsoleTest_SetRegion_TestD0Ev
FNDA:1,_ZN26ConsoleTest_SetRegion_TestD2Ev
FNF:24
FNH:24
DA:4,4
DA:5,1
DA:7,1
DA:8,1
DA:9,1
DA:11,4
DA:12,1
DA:14,1
DA:15,1
DA:17,1
DA:18,1
DA:19,1
DA:20,1
DA:21,1
DA:23,4
DA:24,1
DA:25,1
DA:26,1
DA:27,1
DA:29,4
DA:30,1
DA:31,1
DA:32,1
DA:34,4
DA:35,1
DA:36,1
DA:37,1
DA:38,1
DA:40,4
DA:41,1
DA:47,2
DA:48,1
DA:49,1
DA:50,1
DA:51,1
DA:52,1
DA:53,1
LF:37
LH:37
end_of_record
TN:
SF:/home/eufrosty/Desktop/vs/2026_Analysis_ONRL/tools/unit-tests/test_util.cpp
FN:16,16,_ZN33UtilTest_HaltCatchFireThrows_Test8TestBodyEv
FN:16,16,_ZN33UtilTest_HaltCatchFireThrows_TestC2Ev
FN:16,16,_ZN33UtilTest_HaltCatchFireThrows_TestD0Ev
FN:16,16,_ZN33UtilTest_HaltCatchFireThrows_TestD2Ev
FN:20,20,_ZN30SfUtilTest_ToStringClosed_Test8TestBodyEv
FN:20,20,_ZN30SfUtilTest_ToStringClosed_TestC2Ev
FN:20,20,_ZN30SfUtilTest_ToStringClosed_TestD0Ev
FN:20,20,_ZN30SfUtilTest_ToStringClosed_TestD2Ev
FN:24,24,_ZN34SfUtilTest_ToStringKeyPressed_Test8TestBodyEv
FN:24,24,_ZN34SfUtilTest_ToStringKeyPressed_TestC2Ev
FN:24,24,_ZN34SfUtilTest_ToStringKeyPressed_TestD0Ev
FN:24,24,_ZN34SfUtilTest_ToStringKeyPressed_TestD2Ev
FN:28,28,_ZN34SfUtilTest_ToStringMouseMoved_Test8TestBodyEv
FN:28,28,_ZN34SfUtilTest_ToStringMouseMoved_TestC2Ev
FN:28,28,_ZN34SfUtilTest_ToStringMouseMoved_TestD0Ev
FN:28,28,_ZN34SfUtilTest_ToStringMouseMoved_TestD2Ev
FN:4,4,_ZN31UtilTest_DistanceSamePoint_Test8TestBodyEv
FN:4,4,_ZN31UtilTest_DistanceSamePoint_TestC2Ev
FN:4,4,_ZN31UtilTest_DistanceSamePoint_TestD0Ev
FN:4,4,_ZN31UtilTest_DistanceSamePoint_TestD2Ev
FN:9,9,_ZN33UtilTest_DistancePythagorean_Test8TestBodyEv
FN:9,9,_ZN33UtilTest_DistancePythagorean_TestC2Ev
FN:9,9,_ZN33UtilTest_DistancePythagorean_TestD0Ev
FN:9,9,_ZN33UtilTest_DistancePythagorean_TestD2Ev
FNDA:1,_ZN33UtilTest_HaltCatchFireThrows_Test8TestBodyEv
FNDA:1,_ZN33UtilTest_HaltCatchFireThrows_TestC2Ev
FNDA:1,_ZN33UtilTest_HaltCatchFireThrows_TestD0Ev
FNDA:1,_ZN33UtilTest_HaltCatchFireThrows_TestD2Ev
FNDA:1,_ZN30SfUtilTest_ToStringClosed_Test8TestBodyEv
FNDA:1,_ZN30SfUtilTest_ToStringClosed_TestC2Ev
FNDA:1,_ZN30SfUtilTest_ToStringClosed_TestD0Ev
FNDA:1,_ZN30SfUtilTest_ToStringClosed_TestD2Ev
FNDA:1,_ZN34SfUtilTest_ToStringKeyPressed_Test8TestBodyEv
FNDA:1,_ZN34SfUtilTest_ToStringKeyPressed_TestC2Ev
FNDA:1,_ZN34SfUtilTest_ToStringKeyPressed_TestD0Ev
FNDA:1,_ZN34SfUtilTest_ToStringKeyPressed_TestD2Ev
FNDA:1,_ZN34SfUtilTest_ToStringMouseMoved_Test8TestBodyEv
FNDA:1,_ZN34SfUtilTest_ToStringMouseMoved_TestC2Ev
FNDA:1,_ZN34SfUtilTest_ToStringMouseMoved_TestD0Ev
FNDA:1,_ZN34SfUtilTest_ToStringMouseMoved_TestD2Ev
FNDA:1,_ZN31UtilTest_DistanceSamePoint_Test8TestBodyEv
FNDA:1,_ZN31UtilTest_DistanceSamePoint_TestC2Ev
FNDA:1,_ZN31UtilTest_DistanceSamePoint_TestD0Ev
FNDA:1,_ZN31UtilTest_DistanceSamePoint_TestD2Ev
FNDA:1,_ZN33UtilTest_DistancePythagorean_Test8TestBodyEv
FNDA:1,_ZN33UtilTest_DistancePythagorean_TestC2Ev
FNDA:1,_ZN33UtilTest_DistancePythagorean_TestD0Ev
FNDA:1,_ZN33UtilTest_DistancePythagorean_TestD2Ev
FNF:24
FNH:24
DA:4,4
DA:5,1
DA:6,1
DA:7,1
DA:9,4
DA:11,1
DA:12,1
DA:13,1
DA:14,1
DA:16,4
DA:17,3
DA:18,1
DA:20,4
DA:21,1
DA:22,1
DA:24,4
DA:25,1
DA:26,1
DA:28,4
DA:29,1
DA:30,1
LF:21
LH:21
end_of_record
TN:
SF:/usr/include/SFML/Graphics/Drawable.hpp
FN:52,52,_ZN2sf8DrawableD0Ev
FN:52,52,_ZN2sf8DrawableD2Ev
FNDA:0,_ZN2sf8DrawableD0Ev
FNDA:48,_ZN2sf8DrawableD2Ev
FNF:2
FNH:1
DA:52,48
LF:1
LH:1
end_of_record
TN:
SF:/usr/include/SFML/Graphics/RectangleShape.hpp
FNF:0
FNH:0
LF:0
LH:0
end_of_record
TN:
SF:/usr/include/SFML/Graphics/Text.hpp
FNF:0
FNH:0
LF:0
LH:0
end_of_record
TN:
SF:/usr/include/SFML/Graphics/VertexArray.hpp
FNF:0
FNH:0
LF:0
LH:0
end_of_record
TN:
SF:/usr/include/SFML/System/String.hpp
FNF:0
FNH:0
LF:0
LH:0
end_of_record
TN:
SF:/usr/include/SFML/System/Vector2.inl
FN:38,43,_ZN2sf7Vector2IfEC2Eff
FN:38,43,_ZN2sf7Vector2IjEC2Ejj
FNDA:8,_ZN2sf7Vector2IfEC2Eff
FNDA:3,_ZN2sf7Vector2IjEC2Ejj
FNF:2
FNH:2
DA:38,11
DA:39,11
DA:40,11
DA:43,11
LF:4
LH:4
end_of_record
TN:
SF:/usr/include/c++/13/bits/alloc_traits.h
FNF:0
FNH:0
DA:482,2618
DA:517,109
DA:540,8800
DA:542,8800
DA:560,0
DA:562,0
DA:576,2934
DA:588,16
DA:948,40
DA:949,40
LF:10
LH:8
end_of_record
TN:
SF:/usr/include/c++/13/bits/allocator.h
FNF:0
FNH:0
DA:163,168
DA:168,290
DA:184,173
DA:191,2618
DA:193,0
DA:194,0
DA:195,0
DA:198,2618
DA:205,109
DA:207,0
DA:208,0
DA:210,109
LF:12
LH:7
end_of_record
TN:
SF:/usr/include/c++/13/bits/basic_string.h
FN:1071,1072,_ZNKSt7__cxx1112basic_stringIcSt11char_traitsIcESaIcEE4sizeEv
FN:1078,1079,_ZNKSt7__cxx1112basic_stringIcSt11char_traitsIcESaIcEE6lengthEv
FN:1084,1085,_ZNKSt7__cxx1112basic_stringIcSt11char_traitsIcESaIcEE8max_sizeEv
FN:1169,1173,_ZNKSt7__cxx1112basic_stringIcSt11char_traitsIcESaIcEE8capacityEv
FN:124,137,_ZNSt7__cxx1112basic_stringIcSt11char_traitsIcESaIcEE11_S_allocateERS3_m
FN:1254,1262,_ZNSt7__cxx1112basic_stringIcSt11char_traitsIcESaIcEEixEm
FN:1366,1367,_ZNSt7__cxx1112basic_stringIcSt11char_traitsIcESaIcEEpLERKS4_
FN:1376,1377,_ZNSt7__cxx1112basic_stringIcSt11char_traitsIcESaIcEEpLEPKc
FN:1424,1425,_ZNSt7__cxx1112basic_stringIcSt11char_traitsIcESaIcEE6appendERKS4_
FN:1455,1460,_ZNSt7__cxx1112basic_stringIcSt11char_traitsIcESaIcEE6appendEPKcm
FN:1469,1475,_ZNSt7__cxx1112basic_stringIcSt11char_traitsIcESaIcEE6appendEPKc
FN:1681,1686,_ZNSt7__cxx1112basic_stringIcSt11char_traitsIcESaIcEE6assignEPKc
FN:188,189,_ZNSt7__cxx1112basic_stringIcSt11char_traitsIcESaIcEE12_Alloc_hiderC2EPcRKS3_
FN:1894,1896,_ZNSt7__cxx1112basic_stringIcSt11char_traitsIcESaIcEE6insertEmRKS4_
FN:192,193,_ZNSt7__cxx1112basic_stringIcSt11char_traitsIcESaIcEE12_Alloc_hiderC1EPcOS3_
FN:192,193,_ZNSt7__cxx1112basic_stringIcSt11char_traitsIcESaIcEE12_Alloc_hiderC2EPcOS3_
FN:1962,1967,_ZNSt7__cxx1112basic_stringIcSt11char_traitsIcESaIcEE6insertEmPKc
FN:2069,2077,_ZNSt7__cxx1112basic_stringIcSt11char_traitsIcESaIcEE5eraseEmm
FN:212,213,_ZNSt7__cxx1112basic_stringIcSt11char_traitsIcESaIcEE7_M_dataEPc
FN:217,218,_ZNSt7__cxx1112basic_stringIcSt11char_traitsIcESaIcEE9_M_lengthEm
FN:2204,2210,_ZNSt7__cxx1112basic_stringIcSt11char_traitsIcESaIcEE7replaceEmmPKcm
FN:222,223,_ZNKSt7__cxx1112basic_stringIcSt11char_traitsIcESaIcEE7_M_dataEv
FN:222,223,_ZNKSt7__cxx1112basic_stringIjSt11char_traitsIjESaIjEE7_M_dataEv
FN:2230,2234,_ZNSt7__cxx1112basic_stringIcSt11char_traitsIcESaIcEE7replaceEmmPKc
FN:227,234,_ZNSt7__cxx1112basic_stringIcSt11char_traitsIcESaIcEE13_M_local_dataEv
FN:238,245,_ZNKSt7__cxx1112basic_stringIcSt11char_traitsIcESaIcEE13_M_local_dataEv
FN:238,245,_ZNKSt7__cxx1112basic_stringIjSt11char_traitsIjESaIjEE13_M_local_dataEv
FN:249,250,_ZNSt7__cxx1112basic_stringIcSt11char_traitsIcESaIcEE11_M_capacityEm
FN:254,258,_ZNSt7__cxx1112basic_stringIcSt11char_traitsIcESaIcEE13_M_set_lengthEm
FN:2595,2596,_ZNKSt7__cxx1112basic_stringIcSt11char_traitsIcESaIcEE5c_strEv
FN:2608,2609,_ZNKSt7__cxx1112basic_stringIcSt11char_traitsIcESaIcEE4dataEv
FN:262,271,_ZNKSt7__cxx1112basic_stringIcSt11char_traitsIcESaIcEE11_M_is_localEv
FN:262,271,_ZNKSt7__cxx1112basic_stringIjSt11char_traitsIjESaIjEE11_M_is_localEv
FN:2629,2630,_ZNKSt7__cxx1112basic_stringIcSt11char_traitsIcESaIcEE13get_allocatorEv
FN:2695,2699,_ZNKSt7__cxx1112basic_stringIcSt11char_traitsIcESaIcEE4findEPKcm
FN:280,284,_ZNSt7__cxx1112basic_stringIcSt11char_traitsIcESaIcEE10_M_disposeEv
FN:280,284,_ZNSt7__cxx1112basic_stringIjSt11char_traitsIjESaIjEE10_M_disposeEv
FN:288,289,_ZNSt7__cxx1112basic_stringIcSt11char_traitsIcESaIcEE10_M_destroyEm
FN:288,289,_ZNSt7__cxx1112basic_stringIjSt11char_traitsIjESaIjEE10_M_destroyEm
FN:336,337,_ZNSt7__cxx1112basic_stringIcSt11char_traitsIcESaIcEE16_M_get_allocatorEv
FN:336,337,_ZNSt7__cxx1112basic_stringIjSt11char_traitsIjESaIjEE16_M_get_allocatorEv
FN:3383,3394,_ZNKSt7__cxx1112basic_stringIcSt11char_traitsIcESaIcEE7compareEmmPKc
FN:341,342,_ZNKSt7__cxx1112basic_stringIcSt11char_traitsIcESaIcEE16_M_get_allocatorEv
FN:3528,3541,_ZSt12__str_concatINSt7__cxx1112basic_stringIcSt11char_traitsIcESaIcEEEET_PKNS6_10value_typeENS6_9size_typeES9_SA_RKNS6_14allocator_typeE
FN:3571,3579,_ZStplIcSt11char_traitsIcESaIcEENSt7__cxx1112basic_stringIT_T0_T1_EEPKS5_RKS8_
FN:3651,3669,_ZStplIcSt11char_traitsIcESaIcEENSt7__cxx1112basic_stringIT_T0_T1_EEOS8_S9_
FN:3674,3676,_ZStplIcSt11char_traitsIcESaIcEENSt7__cxx1112basic_stringIT_T0_T1_EEPKS5_OS8_
FN:3688,3690,_ZStplIcSt11char_traitsIcESaIcEENSt7__cxx1112basic_stringIT_T0_T1_EEOS8_PKS5_
FN:3727,3732,_ZSteqIcSt11char_traitsIcESaIcEEbRKNSt7__cxx1112basic_stringIT_T0_T1_EEPKS5_
FN:386,393,_ZNKSt7__cxx1112basic_stringIcSt11char_traitsIcESaIcEE8_M_checkEmPKc
FN:397,401,_ZNKSt7__cxx1112basic_stringIcSt11char_traitsIcESaIcEE15_M_check_lengthEmmPKc
FN:407,411,_ZNKSt7__cxx1112basic_stringIcSt11char_traitsIcESaIcEE8_M_limitEmm
FN:415,419,_ZNKSt7__cxx1112basic_stringIcSt11char_traitsIcESaIcEE11_M_disjunctEPKc
FN:4177,4185,_ZNSt7__cxx119to_stringEj
FN:4204,4212,_ZNSt7__cxx119to_stringEm
FN:4241,4247,_ZNSt7__cxx119to_stringEf
FN:425,431,_ZNSt7__cxx1112basic_stringIcSt11char_traitsIcESaIcEE7_S_copyEPcPKcm
FN:435,441,_ZNSt7__cxx1112basic_stringIcSt11char_traitsIcESaIcEE7_S_moveEPcPKcm
FN:445,451,_ZNSt7__cxx1112basic_stringIcSt11char_traitsIcESaIcEE9_S_assignEPcmc
FN:477,478,_ZNSt7__cxx1112basic_stringIcSt11char_traitsIcESaIcEE13_S_copy_charsEPcS5_S5_
FN:482,484,_ZNSt7__cxx1112basic_stringIcSt11char_traitsIcESaIcEE13_S_copy_charsEPcPKcS7_
FN:488,498,_ZNSt7__cxx1112basic_stringIcSt11char_traitsIcESaIcEE10_S_compareEmm
FN:522,528,_ZNSt7__cxx1112basic_stringIcSt11char_traitsIcESaIcEEC1Ev
FN:535,540,_ZNSt7__cxx1112basic_stringIcSt11char_traitsIcESaIcEEC2ERKS3_
FN:547,553,_ZNSt7__cxx1112basic_stringIcSt11char_traitsIcESaIcEEC2ERKS4_
FN:641,650,_ZNSt7__cxx1112basic_stringIcSt11char_traitsIcESaIcEEC2IS3_EEPKcRKS3_
FN:664,666,_ZNSt7__cxx1112basic_stringIcSt11char_traitsIcESaIcEEC2IS3_EEmcRKS3_
FN:677,698,_ZNSt7__cxx1112basic_stringIcSt11char_traitsIcESaIcEEC2EOS4_
FN:760,770,_ZNSt7__cxx1112basic_stringIcSt11char_traitsIcESaIcEEC2IPcvEET_S7_RKS3_
FN:803,804,_ZNSt7__cxx1112basic_stringIcSt11char_traitsIcESaIcEED2Ev
FN:803,804,_ZNSt7__cxx1112basic_stringIjSt11char_traitsIjESaIjEED2Ev
FN:823,824,_ZNSt7__cxx1112basic_stringIcSt11char_traitsIcESaIcEEaSEPKc
FNDA:900,_ZNKSt7__cxx1112basic_stringIcSt11char_traitsIcESaIcEE4sizeEv
FNDA:452,_ZNKSt7__cxx1112basic_stringIcSt11char_traitsIcESaIcEE6lengthEv
FNDA:2921,_ZNKSt7__cxx1112basic_stringIcSt11char_traitsIcESaIcEE8max_sizeEv
FNDA:552,_ZNKSt7__cxx1112basic_stringIcSt11char_traitsIcESaIcEE8capacityEv
FNDA:2604,_ZNSt7__cxx1112basic_stringIcSt11char_traitsIcESaIcEE11_S_allocateERS3_m
FNDA:92,_ZNSt7__cxx1112basic_stringIcSt11char_traitsIcESaIcEEixEm
FNDA:0,_ZNSt7__cxx1112basic_stringIcSt11char_traitsIcESaIcEEpLERKS4_
FNDA:0,_ZNSt7__cxx1112basic_stringIcSt11char_traitsIcESaIcEEpLEPKc
FNDA:48,_ZNSt7__cxx1112basic_stringIcSt11char_traitsIcESaIcEE6appendERKS4_
FNDA:48,_ZNSt7__cxx1112basic_stringIcSt11char_traitsIcESaIcEE6appendEPKcm
FNDA:48,_ZNSt7__cxx1112basic_stringIcSt11char_traitsIcESaIcEE6appendEPKc
FNDA:0,_ZNSt7__cxx1112basic_stringIcSt11char_traitsIcESaIcEE6assignEPKc
FNDA:96,_ZNSt7__cxx1112basic_stringIcSt11char_traitsIcESaIcEE12_Alloc_hiderC2EPcRKS3_
FNDA:0,_ZNSt7__cxx1112basic_stringIcSt11char_traitsIcESaIcEE6insertEmRKS4_
FNDA:175,_ZNSt7__cxx1112basic_stringIcSt11char_traitsIcESaIcEE12_Alloc_hiderC1EPcOS3_
FNDA:0,_ZNSt7__cxx1112basic_stringIcSt11char_traitsIcESaIcEE12_Alloc_hiderC2EPcOS3_
FNDA:50,_ZNSt7__cxx1112basic_stringIcSt11char_traitsIcESaIcEE6insertEmPKc
FNDA:0,_ZNSt7__cxx1112basic_stringIcSt11char_traitsIcESaIcEE5eraseEmm
FNDA:456,_ZNSt7__cxx1112basic_stringIcSt11char_traitsIcESaIcEE7_M_dataEPc
FNDA:702,_ZNSt7__cxx1112basic_stringIcSt11char_traitsIcESaIcEE9_M_lengthEm
FNDA:26,_ZNSt7__cxx1112basic_stringIcSt11char_traitsIcESaIcEE7replaceEmmPKcm
FNDA:2505,_ZNKSt7__cxx1112basic_stringIcSt11char_traitsIcESaIcEE7_M_dataEv
FNDA:8052,_ZNKSt7__cxx1112basic_stringIjSt11char_traitsIjESaIjEE7_M_dataEv
FNDA:0,_ZNSt7__cxx1112basic_stringIcSt11char_traitsIcESaIcEE7replaceEmmPKc
FNDA:426,_ZNSt7__cxx1112basic_stringIcSt11char_traitsIcESaIcEE13_M_local_dataEv
FNDA:1128,_ZNKSt7__cxx1112basic_stringIcSt11char_traitsIcESaIcEE13_M_local_dataEv
FNDA:8040,_ZNKSt7__cxx1112basic_stringIjSt11char_traitsIjESaIjEE13_M_local_dataEv
FNDA:301,_ZNSt7__cxx1112basic_stringIcSt11char_traitsIcESaIcEE11_M_capacityEm
FNDA:547,_ZNSt7__cxx1112basic_stringIcSt11char_traitsIcESaIcEE13_M_set_lengthEm
FNDA:0,_ZNKSt7__cxx1112basic_stringIcSt11char_traitsIcESaIcEE5c_strEv
FNDA:3,_ZNKSt7__cxx1112basic_stringIcSt11char_traitsIcESaIcEE4dataEv
FNDA:1128,_ZNKSt7__cxx1112basic_stringIcSt11char_traitsIcESaIcEE11_M_is_localEv
FNDA:8040,_ZNKSt7__cxx1112basic_stringIjSt11char_traitsIjESaIjEE11_M_is_localEv
FNDA:0,_ZNKSt7__cxx1112basic_stringIcSt11char_traitsIcESaIcEE13get_allocatorEv
FNDA:0,_ZNKSt7__cxx1112basic_stringIcSt11char_traitsIcESaIcEE4findEPKcm
FNDA:421,_ZNSt7__cxx1112basic_stringIcSt11char_traitsIcESaIcEE10_M_disposeEv
FNDA:8040,_ZNSt7__cxx1112basic_stringIjSt11char_traitsIjESaIjEE10_M_disposeEv
FNDA:77,_ZNSt7__cxx1112basic_stringIcSt11char_traitsIcESaIcEE10_M_destroyEm
FNDA:12,_ZNSt7__cxx1112basic_stringIjSt11char_traitsIjESaIjEE10_M_destroyEm
FNDA:2836,_ZNSt7__cxx1112basic_stringIcSt11char_traitsIcESaIcEE16_M_get_allocatorEv
FNDA:12,_ZNSt7__cxx1112basic_stringIjSt11char_traitsIjESaIjEE16_M_get_allocatorEv
FNDA:0,_ZNKSt7__cxx1112basic_stringIcSt11char_traitsIcESaIcEE7compareEmmPKc
FNDA:2936,_ZNKSt7__cxx1112basic_stringIcSt11char_traitsIcESaIcEE16_M_get_allocatorEv
FNDA:0,_ZSt12__str_concatINSt7__cxx1112basic_stringIcSt11char_traitsIcESaIcEEEET_PKNS6_10value_typeENS6_9size_typeES9_SA_RKNS6_14allocator_typeE
FNDA:0,_ZStplIcSt11char_traitsIcESaIcEENSt7__cxx1112basic_stringIT_T0_T1_EEPKS5_RKS8_
FNDA:90,_ZStplIcSt11char_traitsIcESaIcEENSt7__cxx1112basic_stringIT_T0_T1_EEOS8_S9_
FNDA:50,_ZStplIcSt11char_traitsIcESaIcEENSt7__cxx1112basic_stringIT_T0_T1_EEPKS5_OS8_
FNDA:90,_ZStplIcSt11char_traitsIcESaIcEENSt7__cxx1112basic_stringIT_T0_T1_EEOS8_PKS5_
FNDA:3,_ZSteqIcSt11char_traitsIcESaIcEEbRKNSt7__cxx1112basic_stringIT_T0_T1_EEPKS5_
FNDA:26,_ZNKSt7__cxx1112basic_stringIcSt11char_traitsIcESaIcEE8_M_checkEmPKc
FNDA:218,_ZNKSt7__cxx1112basic_stringIcSt11char_traitsIcESaIcEE15_M_check_lengthEmmPKc
FNDA:26,_ZNKSt7__cxx1112basic_stringIcSt11char_traitsIcESaIcEE8_M_limitEmm
FNDA:70,_ZNKSt7__cxx1112basic_stringIcSt11char_traitsIcESaIcEE11_M_disjunctEPKc
FNDA:92,_ZNSt7__cxx119to_stringEj
FNDA:0,_ZNSt7__cxx119to_stringEm
FNDA:48,_ZNSt7__cxx119to_stringEf
FNDA:470,_ZNSt7__cxx1112basic_stringIcSt11char_traitsIcESaIcEE7_S_copyEPcPKcm
FNDA:0,_ZNSt7__cxx1112basic_stringIcSt11char_traitsIcESaIcEE7_S_moveEPcPKcm
FNDA:92,_ZNSt7__cxx1112basic_stringIcSt11char_traitsIcESaIcEE9_S_assignEPcmc
FNDA:39,_ZNSt7__cxx1112basic_stringIcSt11char_traitsIcESaIcEE13_S_copy_charsEPcS5_S5_
FNDA:22,_ZNSt7__cxx1112basic_stringIcSt11char_traitsIcESaIcEE13_S_copy_charsEPcPKcS7_
FNDA:0,_ZNSt7__cxx1112basic_stringIcSt11char_traitsIcESaIcEE10_S_compareEmm
FNDA:5,_ZNSt7__cxx1112basic_stringIcSt11char_traitsIcESaIcEEC1Ev
FNDA:0,_ZNSt7__cxx1112basic_stringIcSt11char_traitsIcESaIcEEC2ERKS3_
FNDA:15,_ZNSt7__cxx1112basic_stringIcSt11char_traitsIcESaIcEEC2ERKS4_
FNDA:22,_ZNSt7__cxx1112basic_stringIcSt11char_traitsIcESaIcEEC2IS3_EEPKcRKS3_
FNDA:92,_ZNSt7__cxx1112basic_stringIcSt11char_traitsIcESaIcEEC2IS3_EEmcRKS3_
FNDA:155,_ZNSt7__cxx1112basic_stringIcSt11char_traitsIcESaIcEEC2EOS4_
FNDA:48,_ZNSt7__cxx1112basic_stringIcSt11char_traitsIcESaIcEEC2IPcvEET_S7_RKS3_
FNDA:246,_ZNSt7__cxx1112basic_stringIcSt11char_traitsIcESaIcEED2Ev
FNDA:8040,_ZNSt7__cxx1112basic_stringIjSt11char_traitsIjESaIjEED2Ev
FNDA:0,_ZNSt7__cxx1112basic_stringIcSt11char_traitsIcESaIcEEaSEPKc
FNF:72
FNH:54
DA:124,2604
DA:126,2604
DA:136,2604
DA:188,96
DA:189,96
DA:192,175
DA:193,175
DA:212,456
DA:213,456
DA:217,702
DA:218,702
DA:222,10557
DA:223,10557
DA:227,426
DA:230,426
DA:238,9168
DA:241,9168
DA:249,301
DA:250,301
DA:254,547
DA:256,547
DA:257,547
DA:258,547
DA:262,9168
DA:264,9168
DA:266,8761
DA:267,0
DA:268,8761
DA:270,407
DA:280,8461
DA:282,8461
DA:283,89
DA:284,8461
DA:288,89
DA:289,89
DA:336,2848
DA:337,2848
DA:341,2936
DA:342,2936
DA:351,326
DA:352,0
DA:353,0
DA:355,326
DA:365,155
DA:386,26
DA:388,26
DA:389,0
DA:392,26
DA:397,218
DA:399,218
DA:400,0
DA:401,218
DA:407,26
DA:409,26
DA:410,26
DA:415,70
DA:417,70
DA:418,70
DA:425,470
DA:427,470
DA:428,138
DA:430,332
DA:431,470
DA:435,0
DA:437,0
DA:438,0
DA:440,0
DA:441,0
DA:445,92
DA:447,92
DA:448,2
DA:450,90
DA:451,92
DA:477,39
DA:478,39
DA:482,22
DA:484,22
DA:488,0
DA:490,0
DA:492,0
DA:493,0
DA:494,0
DA:495,0
DA:497,0
DA:522,5
DA:524,15
DA:527,5
DA:528,5
DA:535,0
DA:536,0
DA:539,0
DA:540,0
DA:547,15
DA:548,15
DA:549,15
DA:551,15
DA:553,15
DA:641,22
DA:642,22
DA:645,22
DA:646,0
DA:648,22
DA:649,22
DA:650,22
DA:664,92
DA:665,92
DA:666,92
DA:677,155
DA:678,155
DA:680,155
DA:683,33
DA:684,33
DA:688,122
DA:689,122
DA:695,155
DA:696,155
DA:697,155
DA:698,155
DA:760,48
DA:762,48
DA:765,48
DA:770,48
DA:803,8286
DA:804,8286
DA:823,0
DA:824,0
DA:1071,900
DA:1072,900
DA:1078,452
DA:1079,452
DA:1084,2921
DA:1085,5842
DA:1169,552
DA:1171,552
DA:1172,552
DA:1254,92
DA:1258,92
DA:1261,92
DA:1366,0
DA:1367,0
DA:1376,0
DA:1377,0
DA:1424,48
DA:1425,48
DA:1455,48
DA:1458,48
DA:1459,48
DA:1469,48
DA:1472,48
DA:1473,48
DA:1474,48
DA:1681,0
DA:1684,0
DA:1685,0
DA:1894,0
DA:1895,0
DA:1896,0
DA:1962,50
DA:1965,50
DA:1966,50
DA:2069,0
DA:2071,0
DA:2072,0
DA:2073,0
DA:2074,0
DA:2075,0
DA:2076,0
DA:2204,26
DA:2208,26
DA:2209,26
DA:2230,0
DA:2233,0
DA:2595,0
DA:2596,0
DA:2608,3
DA:2609,3
DA:2629,0
DA:2630,0
DA:2695,0
DA:2698,0
DA:3383,0
DA:3386,0
DA:3387,0
DA:3388,0
DA:3389,0
DA:3390,0
DA:3391,0
DA:3392,0
DA:3393,0
DA:3528,0
DA:3536,0
DA:3537,0
DA:3538,0
DA:3539,0
DA:3540,0
DA:3541,0
DA:3571,0
DA:3578,0
DA:3651,90
DA:3656,90
DA:3658,90
DA:3661,90
DA:3664,90
DA:3665,90
DA:3666,0
DA:3668,90
DA:3674,50
DA:3676,50
DA:3688,90
DA:3690,90
DA:3727,3
DA:3730,3
DA:3731,3
DA:4177,92
DA:4182,92
DA:4183,92
DA:4184,92
DA:4204,0
DA:4209,0
DA:4210,0
DA:4211,0
DA:4212,0
DA:4241,48
DA:4243,48
DA:4246,48
LF:225
LH:152
end_of_record
TN:
SF:/usr/include/c++/13/bits/basic_string.tcc
FN:138,160,_ZNSt7__cxx1112basic_stringIcSt11char_traitsIcESaIcEE9_M_createERmm
FN:221,252,_ZNSt7__cxx1112basic_stringIcSt11char_traitsIcESaIcEE12_M_constructIPKcEEvT_S8_St20forward_iterator_tag
FN:221,252,_ZNSt7__cxx1112basic_stringIcSt11char_traitsIcESaIcEE12_M_constructIPcEEvT_S7_St20forward_iterator_tag
FN:239,239,_ZZNSt7__cxx1112basic_stringIcSt11char_traitsIcESaIcEE12_M_constructIPKcEEvT_S8_St20forward_iterator_tagEN6_GuardC2EPS4_
FN:239,239,_ZZNSt7__cxx1112basic_stringIcSt11char_traitsIcESaIcEE12_M_constructIPcEEvT_S7_St20forward_iterator_tagEN6_GuardC2EPS4_
FN:242,242,_ZZNSt7__cxx1112basic_stringIcSt11char_traitsIcESaIcEE12_M_constructIPKcEEvT_S8_St20forward_iterator_tagEN6_GuardD2Ev
FN:242,242,_ZZNSt7__cxx1112basic_stringIcSt11char_traitsIcESaIcEE12_M_constructIPcEEvT_S7_St20forward_iterator_tagEN6_GuardD2Ev
FN:257,272,_ZNSt7__cxx1112basic_stringIcSt11char_traitsIcESaIcEE12_M_constructEmc
FN:304,320,_ZNSt7__cxx1112basic_stringIcSt11char_traitsIcESaIcEE7reserveEm
FN:325,345,_ZNSt7__cxx1112basic_stringIcSt11char_traitsIcESaIcEE9_M_mutateEmmPKcm
FN:350,359,_ZNSt7__cxx1112basic_stringIcSt11char_traitsIcESaIcEE8_M_eraseEmm
FN:413,428,_ZNSt7__cxx1112basic_stringIcSt11char_traitsIcESaIcEE9_M_appendEPKcm
FN:511,552,_ZNSt7__cxx1112basic_stringIcSt11char_traitsIcESaIcEE10_M_replaceEmmPKcm
FN:618,650,_ZNKSt7__cxx1112basic_stringIcSt11char_traitsIcESaIcEE4findEPKcmm
FNDA:2604,_ZNSt7__cxx1112basic_stringIcSt11char_traitsIcESaIcEE9_M_createERmm
FNDA:22,_ZNSt7__cxx1112basic_stringIcSt11char_traitsIcESaIcEE12_M_constructIPKcEEvT_S8_St20forward_iterator_tag
FNDA:39,_ZNSt7__cxx1112basic_stringIcSt11char_traitsIcESaIcEE12_M_constructIPcEEvT_S7_St20forward_iterator_tag
FNDA:22,_ZZNSt7__cxx1112basic_stringIcSt11char_traitsIcESaIcEE12_M_constructIPKcEEvT_S8_St20forward_iterator_tagEN6_GuardC2EPS4_
FNDA:39,_ZZNSt7__cxx1112basic_stringIcSt11char_traitsIcESaIcEE12_M_constructIPcEEvT_S7_St20forward_iterator_tagEN6_GuardC2EPS4_
FNDA:22,_ZZNSt7__cxx1112basic_stringIcSt11char_traitsIcESaIcEE12_M_constructIPKcEEvT_S8_St20forward_iterator_tagEN6_GuardD2Ev
FNDA:39,_ZZNSt7__cxx1112basic_stringIcSt11char_traitsIcESaIcEE12_M_constructIPcEEvT_S7_St20forward_iterator_tagEN6_GuardD2Ev
FNDA:92,_ZNSt7__cxx1112basic_stringIcSt11char_traitsIcESaIcEE12_M_constructEmc
FNDA:126,_ZNSt7__cxx1112basic_stringIcSt11char_traitsIcESaIcEE7reserveEm
FNDA:90,_ZNSt7__cxx1112basic_stringIcSt11char_traitsIcESaIcEE9_M_mutateEmmPKcm
FNDA:0,_ZNSt7__cxx1112basic_stringIcSt11char_traitsIcESaIcEE8_M_eraseEmm
FNDA:154,_ZNSt7__cxx1112basic_stringIcSt11char_traitsIcESaIcEE9_M_appendEPKcm
FNDA:122,_ZNSt7__cxx1112basic_stringIcSt11char_traitsIcESaIcEE10_M_replaceEmmPKcm
FNDA:0,_ZNKSt7__cxx1112basic_stringIcSt11char_traitsIcESaIcEE4findEPKcmm
FNF:14
FNH:12
DA:138,2604
DA:143,2604
DA:144,0
DA:149,2604
DA:151,99
DA:153,99
DA:154,0
DA:159,2604
DA:221,61
DA:225,61
DA:227,61
DA:229,20
DA:230,20
DA:239,61
DA:242,61
DA:245,61
DA:247,61
DA:249,61
DA:251,61
DA:252,61
DA:257,92
DA:260,92
DA:262,0
DA:263,0
DA:268,92
DA:269,92
DA:271,92
DA:272,92
DA:304,126
DA:307,126
DA:312,126
DA:313,57
DA:315,69
DA:316,69
DA:317,69
DA:318,69
DA:319,69
DA:325,90
DA:329,90
DA:331,90
DA:332,90
DA:334,90
DA:335,38
DA:336,90
DA:337,90
DA:338,90
DA:339,26
DA:340,26
DA:342,90
DA:343,90
DA:344,90
DA:345,90
DA:350,0
DA:353,0
DA:355,0
DA:356,0
DA:358,0
DA:359,0
DA:413,154
DA:416,154
DA:418,154
DA:420,116
DA:421,116
DA:424,38
DA:426,154
DA:427,154
DA:511,122
DA:515,122
DA:517,122
DA:518,122
DA:520,122
DA:522,70
DA:524,70
DA:526,70
DA:528,0
DA:529,0
DA:530,0
DA:531,0
DA:532,0
DA:533,0
DA:537,70
DA:539,70
DA:540,0
DA:541,70
DA:542,70
DA:545,0
DA:548,52
DA:550,122
DA:551,122
DA:618,0
DA:623,0
DA:625,0
DA:626,0
DA:627,0
DA:628,0
DA:630,0
DA:631,0
DA:632,0
DA:633,0
DA:634,0
DA:636,0
DA:639,0
DA:640,0
DA:641,0
DA:645,0
DA:646,0
DA:647,0
DA:649,0
LF:108
LH:71
end_of_record
TN:
SF:/usr/include/c++/13/bits/char_traits.h
FN:136,137,_ZN9__gnu_cxx11char_traitsIcE2eqERKcS3_
FN:199,206,_ZN9__gnu_cxx11char_traitsIcE6lengthEPKc
FN:210,217,_ZN9__gnu_cxx11char_traitsIcE4findEPKcmRS2_
FN:222,248,_ZN9__gnu_cxx11char_traitsIcE4moveEPcPKcm
FN:253,268,_ZN9__gnu_cxx11char_traitsIcE4copyEPcPKcm
FN:273,300,_ZN9__gnu_cxx11char_traitsIcE6assignEPcmc
FN:351,359,_ZNSt11char_traitsIcE6assignERcRKc
FN:366,371,_ZNSt11char_traitsIcE2ltERKcS2_
FN:374,390,_ZNSt11char_traitsIcE7compareEPKcS2_m
FN:393,400,_ZNSt11char_traitsIcE6lengthEPKc
FN:403,412,_ZNSt11char_traitsIcE4findEPKcmRS1_
FN:415,424,_ZNSt11char_traitsIcE4moveEPcPKcm
FN:427,436,_ZNSt11char_traitsIcE4copyEPcPKcm
FN:439,448,_ZNSt11char_traitsIcE6assignEPcmc
FNDA:0,_ZN9__gnu_cxx11char_traitsIcE2eqERKcS3_
FNDA:0,_ZN9__gnu_cxx11char_traitsIcE6lengthEPKc
FNDA:0,_ZN9__gnu_cxx11char_traitsIcE4findEPKcmRS2_
FNDA:0,_ZN9__gnu_cxx11char_traitsIcE4moveEPcPKcm
FNDA:0,_ZN9__gnu_cxx11char_traitsIcE4copyEPcPKcm
FNDA:0,_ZN9__gnu_cxx11char_traitsIcE6assignEPcmc
FNDA:687,_ZNSt11char_traitsIcE6assignERcRKc
FNDA:0,_ZNSt11char_traitsIcE2ltERKcS2_
FNDA:3,_ZNSt11char_traitsIcE7compareEPKcS2_m
FNDA:99,_ZNSt11char_traitsIcE6lengthEPKc
FNDA:0,_ZNSt11char_traitsIcE4findEPKcmRS1_
FNDA:0,_ZNSt11char_traitsIcE4moveEPcPKcm
FNDA:365,_ZNSt11char_traitsIcE4copyEPcPKcm
FNDA:90,_ZNSt11char_traitsIcE6assignEPcmc
FNF:14
FNH:5
DA:136,0
DA:137,0
DA:199,0
DA:202,0
DA:203,0
DA:204,0
DA:205,0
DA:210,0
DA:213,0
DA:214,0
DA:215,0
DA:216,0
DA:222,0
DA:225,0
DA:226,0
DA:228,0
DA:242,0
DA:243,0
DA:246,0
DA:247,0
DA:253,0
DA:256,0
DA:257,0
DA:259,0
DA:261,0
DA:262,0
DA:263,0
DA:266,0
DA:267,0
DA:273,0
DA:277,0
DA:279,0
DA:280,0
DA:281,0
DA:287,0
DA:290,0
DA:291,0
DA:299,0
DA:351,687
DA:354,687
DA:355,0
DA:358,687
DA:359,687
DA:366,0
DA:369,0
DA:370,0
DA:374,3
DA:376,3
DA:377,0
DA:379,3
DA:381,0
DA:382,0
DA:383,0
DA:384,0
DA:385,0
DA:386,0
DA:389,3
DA:393,99
DA:396,99
DA:397,0
DA:399,99
DA:403,0
DA:405,0
DA:406,0
DA:408,0
DA:409,0
DA:411,0
DA:415,0
DA:417,0
DA:418,0
DA:420,0
DA:421,0
DA:423,0
DA:427,365
DA:429,365
DA:430,0
DA:432,365
DA:433,0
DA:435,365
DA:439,90
DA:441,90
DA:442,0
DA:444,90
DA:445,0
DA:447,90
LF:85
LH:19
end_of_record
TN:
SF:/usr/include/c++/13/bits/charconv.h
FN:55,74,_ZNSt8__detail14__to_chars_lenIjEEjT_i
FN:55,74,_ZNSt8__detail14__to_chars_lenImEEjT_i
FN:81,110,_ZNSt8__detail18__to_chars_10_implIjEEvPcjT_
FN:81,110,_ZNSt8__detail18__to_chars_10_implImEEvPcjT_
FNDA:92,_ZNSt8__detail14__to_chars_lenIjEEjT_i
FNDA:0,_ZNSt8__detail14__to_chars_lenImEEjT_i
FNDA:92,_ZNSt8__detail18__to_chars_10_implIjEEvPcjT_
FNDA:0,_ZNSt8__detail18__to_chars_10_implImEEvPcjT_
FNF:4
FNH:2
DA:55,92
DA:61,92
DA:62,92
DA:63,92
DA:64,92
DA:67,92
DA:68,90
DA:69,24
DA:70,4
DA:71,0
DA:72,0
DA:81,92
DA:87,92
DA:93,92
DA:94,116
DA:96,24
DA:97,24
DA:98,24
DA:99,24
DA:100,24
DA:102,92
DA:104,70
DA:105,70
DA:106,70
DA:109,22
DA:110,92
LF:26
LH:24
end_of_record
TN:
SF:/usr/include/c++/13/bits/move.h
FN:138,139,_ZSt9addressofIKN2sf5ColorEEPT_RS3_
FN:138,139,_ZSt9addressofIKcEPT_RS1_
FN:138,139,_ZSt9addressofIKjEPT_RS1_
FN:138,139,_ZSt9addressofIcEPT_RS0_
FN:51,52,_ZSt11__addressofIKN2sf5ColorEEPT_RS3_
FN:51,52,_ZSt11__addressofIKcEPT_RS1_
FN:51,52,_ZSt11__addressofIKjEPT_RS1_
FN:51,52,_ZSt11__addressofIN2sf6VertexEEPT_RS2_
FN:51,52,_ZSt11__addressofIN3gfx7Console7glyph_tEEPT_RS3_
FN:51,52,_ZSt11__addressofIcEPT_RS0_
FN:70,71,_ZSt7forwardIN3gfx7Console7glyph_tEEOT_RNSt16remove_referenceIS3_E4typeE
FN:70,71,_ZSt7forwardIRKN3gfx7Console7glyph_tEEOT_RNSt16remove_referenceIS5_E4typeE
FN:70,71,_ZSt7forwardIRKcEOT_RNSt16remove_referenceIS2_E4typeE
FN:70,71,_ZSt7forwardIRcEOT_RNSt16remove_referenceIS1_E4typeE
FN:97,98,_ZSt4moveIRN3gfx7Console7glyph_tEEONSt16remove_referenceIT_E4typeEOS5_
FN:97,98,_ZSt4moveIRNSt7__cxx1112basic_stringIcSt11char_traitsIcESaIcEEEEONSt16remove_referenceIT_E4typeEOS8_
FN:97,98,_ZSt4moveIRPNSt7__cxx1112basic_stringIcSt11char_traitsIcESaIcEEEEONSt16remove_referenceIT_E4typeEOS9_
FN:97,98,_ZSt4moveIRPNSt7__cxx1118basic_stringstreamIcSt11char_traitsIcESaIcEEEEONSt16remove_referenceIT_E4typeEOS9_
FN:97,98,_ZSt4moveIRSaIcEEONSt16remove_referenceIT_E4typeEOS3_
FNDA:0,_ZSt9addressofIKN2sf5ColorEEPT_RS3_
FNDA:1128,_ZSt9addressofIKcEPT_RS1_
FNDA:8040,_ZSt9addressofIKjEPT_RS1_
FNDA:426,_ZSt9addressofIcEPT_RS0_
FNDA:0,_ZSt11__addressofIKN2sf5ColorEEPT_RS3_
FNDA:1128,_ZSt11__addressofIKcEPT_RS1_
FNDA:8040,_ZSt11__addressofIKjEPT_RS1_
FNDA:0,_ZSt11__addressofIN2sf6VertexEEPT_RS2_
FNDA:8,_ZSt11__addressofIN3gfx7Console7glyph_tEEPT_RS3_
FNDA:426,_ZSt11__addressofIcEPT_RS0_
FNDA:26400,_ZSt7forwardIN3gfx7Console7glyph_tEEOT_RNSt16remove_referenceIS3_E4typeE
FNDA:8,_ZSt7forwardIRKN3gfx7Console7glyph_tEEOT_RNSt16remove_referenceIS5_E4typeE
FNDA:0,_ZSt7forwardIRKcEOT_RNSt16remove_referenceIS2_E4typeE
FNDA:0,_ZSt7forwardIRcEOT_RNSt16remove_referenceIS1_E4typeE
FNDA:8800,_ZSt4moveIRN3gfx7Console7glyph_tEEONSt16remove_referenceIT_E4typeEOS5_
FNDA:230,_ZSt4moveIRNSt7__cxx1112basic_stringIcSt11char_traitsIcESaIcEEEEONSt16remove_referenceIT_E4typeEOS8_
FNDA:0,_ZSt4moveIRPNSt7__cxx1112basic_stringIcSt11char_traitsIcESaIcEEEEONSt16remove_referenceIT_E4typeEOS9_
FNDA:0,_ZSt4moveIRPNSt7__cxx1118basic_stringstreamIcSt11char_traitsIcESaIcEEEEONSt16remove_referenceIT_E4typeEOS9_
FNDA:330,_ZSt4moveIRSaIcEEONSt16remove_referenceIT_E4typeEOS3_
FNF:19
FNH:12
DA:51,9602
DA:52,9602
DA:70,26408
DA:71,26408
DA:97,9360
DA:98,9360
DA:138,9594
DA:139,9594
LF:8
LH:8
end_of_record
TN:
SF:/usr/include/c++/13/bits/new_allocator.h
FN:126,152,_ZNSt15__new_allocatorIN3gfx7Console7glyph_tEE8allocateEmPKv
FN:126,152,_ZNSt15__new_allocatorIcE8allocateEmPKv
FN:156,173,_ZNSt15__new_allocatorIN2sf6VertexEE10deallocateEPS1_m
FN:156,173,_ZNSt15__new_allocatorIN3gfx7Console7glyph_tEE10deallocateEPS2_m
FN:156,173,_ZNSt15__new_allocatorIcE10deallocateEPcm
FN:156,173,_ZNSt15__new_allocatorIjE10deallocateEPjm
FNDA:14,_ZNSt15__new_allocatorIN3gfx7Console7glyph_tEE8allocateEmPKv
FNDA:2604,_ZNSt15__new_allocatorIcE8allocateEmPKv
FNDA:12,_ZNSt15__new_allocatorIN2sf6VertexEE10deallocateEPS1_m
FNDA:8,_ZNSt15__new_allocatorIN3gfx7Console7glyph_tEE10deallocateEPS2_m
FNDA:77,_ZNSt15__new_allocatorIcE10deallocateEPcm
FNDA:12,_ZNSt15__new_allocatorIjE10deallocateEPjm
FNF:6
FNH:6
DA:88,168
DA:92,290
DA:126,2618
DA:134,2618
DA:138,0
DA:139,0
DA:140,0
DA:151,2618
DA:156,109
DA:172,109
DA:233,2618
LF:11
LH:8
end_of_record
TN:
SF:/usr/include/c++/13/bits/ptr_traits.h
FN:141,142,_ZNSt19__ptr_traits_ptr_toIPKcS0_Lb0EE10pointer_toERS0_
FN:141,142,_ZNSt19__ptr_traits_ptr_toIPKjS0_Lb0EE10pointer_toERS0_
FN:141,142,_ZNSt19__ptr_traits_ptr_toIPccLb0EE10pointer_toERc
FNDA:1128,_ZNSt19__ptr_traits_ptr_toIPKcS0_Lb0EE10pointer_toERS0_
FNDA:8040,_ZNSt19__ptr_traits_ptr_toIPKjS0_Lb0EE10pointer_toERS0_
FNDA:426,_ZNSt19__ptr_traits_ptr_toIPccLb0EE10pointer_toERc
FNF:3
FNH:3
DA:141,9594
DA:142,9594
LF:2
LH:2
end_of_record
TN:
SF:/usr/include/c++/13/bits/stl_algobase.h
FN:233,241,_ZSt3minImERKT_S2_S2_
FN:257,265,_ZSt3maxIfERKT_S2_S2_
FN:257,265,_ZSt3maxImERKT_S2_S2_
FN:316,318,_ZSt12__niter_baseIPN3gfx7Console7glyph_tEET_S4_
FNDA:7,_ZSt3minImERKT_S2_S2_
FNDA:12,_ZSt3maxIfERKT_S2_S2_
FNDA:0,_ZSt3maxImERKT_S2_S2_
FNDA:36,_ZSt12__niter_baseIPN3gfx7Console7glyph_tEET_S4_
FNF:4
FNH:3
DA:233,7
DA:238,7
DA:239,0
DA:240,7
DA:257,12
DA:262,12
DA:263,12
DA:264,0
DA:316,36
DA:318,36
LF:10
LH:8
end_of_record
TN:
SF:/usr/include/c++/13/bits/stl_construct.h
FN:109,120,_ZSt10_ConstructIN3gfx7Console7glyph_tEJRKS2_EEvPT_DpOT0_
FN:146,153,_ZSt8_DestroyIN2sf6VertexEEvPT_
FN:146,153,_ZSt8_DestroyIN3gfx7Console7glyph_tEEvPT_
FN:160,164,_ZNSt12_Destroy_auxILb0EE9__destroyIPN2sf6VertexEEEvT_S5_
FN:160,164,_ZNSt12_Destroy_auxILb0EE9__destroyIPN3gfx7Console7glyph_tEEEvT_S6_
FN:172,172,_ZNSt12_Destroy_auxILb1EE9__destroyIPN2sf6VertexEEEvT_S5_
FN:172,172,_ZNSt12_Destroy_auxILb1EE9__destroyIPN3gfx7Console7glyph_tEEEvT_S6_
FN:182,197,_ZSt8_DestroyIPN2sf6VertexEEvT_S3_
FN:182,197,_ZSt8_DestroyIPN3gfx7Console7glyph_tEEvT_S4_
FN:80,89,_ZSt10destroy_atIN2sf6VertexEEvPT_
FN:80,89,_ZSt10destroy_atIN3gfx7Console7glyph_tEEvPT_
FN:94,97,_ZSt12construct_atIN3gfx7Console7glyph_tEJRKS2_EEDTgsnwcvPvLi0E_T_pispcl7declvalIT0_EEEEPS6_DpOS7_
FN:94,97,_ZSt12construct_atIN3gfx7Console7glyph_tEJS2_EEDTgsnwcvPvLi0E_T_pispcl7declvalIT0_EEEEPS4_DpOS5_
FN:94,97,_ZSt12construct_atIcJRKcEEDTgsnwcvPvLi0E_T_pispcl7declvalIT0_EEEEPS3_DpOS4_
FN:94,97,_ZSt12construct_atIcJRcEEDTgsnwcvPvLi0E_T_pispcl7declvalIT0_EEEEPS2_DpOS3_
FNDA:8,_ZSt10_ConstructIN3gfx7Console7glyph_tEJRKS2_EEvPT_DpOT0_
FNDA:0,_ZSt8_DestroyIN2sf6VertexEEvPT_
FNDA:0,_ZSt8_DestroyIN3gfx7Console7glyph_tEEvPT_
FNDA:0,_ZNSt12_Destroy_auxILb0EE9__destroyIPN2sf6VertexEEEvT_S5_
FNDA:0,_ZNSt12_Destroy_auxILb0EE9__destroyIPN3gfx7Console7glyph_tEEEvT_S6_
FNDA:32,_ZNSt12_Destroy_auxILb1EE9__destroyIPN2sf6VertexEEEvT_S5_
FNDA:8,_ZNSt12_Destroy_auxILb1EE9__destroyIPN3gfx7Console7glyph_tEEEvT_S6_
FNDA:32,_ZSt8_DestroyIPN2sf6VertexEEvT_S3_
FNDA:8,_ZSt8_DestroyIPN3gfx7Console7glyph_tEEvT_S4_
FNDA:0,_ZSt10destroy_atIN2sf6VertexEEvPT_
FNDA:0,_ZSt10destroy_atIN3gfx7Console7glyph_tEEvPT_
FNDA:0,_ZSt12construct_atIN3gfx7Console7glyph_tEJRKS2_EEDTgsnwcvPvLi0E_T_pispcl7declvalIT0_EEEEPS6_DpOS7_
FNDA:8800,_ZSt12construct_atIN3gfx7Console7glyph_tEJS2_EEDTgsnwcvPvLi0E_T_pispcl7declvalIT0_EEEEPS4_DpOS5_
FNDA:0,_ZSt12construct_atIcJRKcEEDTgsnwcvPvLi0E_T_pispcl7declvalIT0_EEEEPS3_DpOS4_
FNDA:0,_ZSt12construct_atIcJRcEEDTgsnwcvPvLi0E_T_pispcl7declvalIT0_EEEEPS2_DpOS3_
FNF:15
FNH:6
DA:80,0
DA:88,0
DA:89,0
DA:94,8800
DA:97,8800
DA:109,8
DA:112,8
DA:115,0
DA:116,0
DA:119,8
DA:146,0
DA:149,0
DA:153,0
DA:160,0
DA:162,0
DA:163,0
DA:164,0
DA:172,40
DA:182,40
DA:192,40
DA:193,0
DA:196,40
LF:22
LH:9
end_of_record
TN:
SF:/usr/include/c++/13/bits/stl_function.h
FN:451,458,_ZNKSt4lessIPKcEclES1_S1_
FNDA:70,_ZNKSt4lessIPKcEclES1_S1_
FNF:1
FNH:1
DA:451,70
DA:454,70
DA:455,0
DA:457,70
LF:4
LH:3
end_of_record
TN:
SF:/usr/include/c++/13/bits/stl_iterator.h
FN:1076,1077,_ZN9__gnu_cxx17__normal_iteratorIPKN3gfx7Console7glyph_tESt6vectorIS3_SaIS3_EEEC2ERKS5_
FN:1076,1077,_ZN9__gnu_cxx17__normal_iteratorIPN3gfx7Console7glyph_tESt6vectorIS3_SaIS3_EEEC2ERKS4_
FN:1099,1100,_ZNK9__gnu_cxx17__normal_iteratorIPKN3gfx7Console7glyph_tESt6vectorIS3_SaIS3_EEEdeEv
FN:1099,1100,_ZNK9__gnu_cxx17__normal_iteratorIPN3gfx7Console7glyph_tESt6vectorIS3_SaIS3_EEEdeEv
FN:1109,1113,_ZN9__gnu_cxx17__normal_iteratorIPKN3gfx7Console7glyph_tESt6vectorIS3_SaIS3_EEEppEv
FN:1157,1158,_ZNK9__gnu_cxx17__normal_iteratorIPN3gfx7Console7glyph_tESt6vectorIS3_SaIS3_EEEmiEl
FN:1162,1163,_ZNK9__gnu_cxx17__normal_iteratorIPKN3gfx7Console7glyph_tESt6vectorIS3_SaIS3_EEE4baseEv
FN:1162,1163,_ZNK9__gnu_cxx17__normal_iteratorIPN3gfx7Console7glyph_tESt6vectorIS3_SaIS3_EEE4baseEv
FN:1197,1203,_ZN9__gnu_cxxeqIPKN3gfx7Console7glyph_tESt6vectorIS3_SaIS3_EEEEbRKNS_17__normal_iteratorIT_T0_EESE_
FN:1334,1337,_ZN9__gnu_cxxmiIPN3gfx7Console7glyph_tESt6vectorIS3_SaIS3_EEEENS_17__normal_iteratorIT_T0_E15difference_typeERKSB_SE_
FNDA:2,_ZN9__gnu_cxx17__normal_iteratorIPKN3gfx7Console7glyph_tESt6vectorIS3_SaIS3_EEEC2ERKS5_
FNDA:17600,_ZN9__gnu_cxx17__normal_iteratorIPN3gfx7Console7glyph_tESt6vectorIS3_SaIS3_EEEC2ERKS4_
FNDA:4,_ZNK9__gnu_cxx17__normal_iteratorIPKN3gfx7Console7glyph_tESt6vectorIS3_SaIS3_EEEdeEv
FNDA:8800,_ZNK9__gnu_cxx17__normal_iteratorIPN3gfx7Console7glyph_tESt6vectorIS3_SaIS3_EEEdeEv
FNDA:4,_ZN9__gnu_cxx17__normal_iteratorIPKN3gfx7Console7glyph_tESt6vectorIS3_SaIS3_EEEppEv
FNDA:8800,_ZNK9__gnu_cxx17__normal_iteratorIPN3gfx7Console7glyph_tESt6vectorIS3_SaIS3_EEEmiEl
FNDA:10,_ZNK9__gnu_cxx17__normal_iteratorIPKN3gfx7Console7glyph_tESt6vectorIS3_SaIS3_EEE4baseEv
FNDA:0,_ZNK9__gnu_cxx17__normal_iteratorIPN3gfx7Console7glyph_tESt6vectorIS3_SaIS3_EEE4baseEv
FNDA:5,_ZN9__gnu_cxxeqIPKN3gfx7Console7glyph_tESt6vectorIS3_SaIS3_EEEEbRKNS_17__normal_iteratorIT_T0_EESE_
FNDA:0,_ZN9__gnu_cxxmiIPN3gfx7Console7glyph_tESt6vectorIS3_SaIS3_EEEENS_17__normal_iteratorIT_T0_E15difference_typeERKSB_SE_
FNF:10
FNH:8
DA:1076,17602
DA:1077,17602
DA:1099,8804
DA:1100,8804
DA:1109,4
DA:1111,4
DA:1112,4
DA:1157,8800
DA:1158,8800
DA:1162,10
DA:1163,10
DA:1197,5
DA:1203,5
DA:1334,0
DA:1337,0
LF:15
LH:13
end_of_record
TN:
SF:/usr/include/c++/13/bits/stl_iterator_base_funcs.h
FNF:0
FNH:0
DA:106,62
DA:151,124
DA:152,124
LF:3
LH:3
end_of_record
TN:
SF:/usr/include/c++/13/bits/stl_iterator_base_types.h
FNF:0
FNH:0
DA:240,110
LF:1
LH:1
end_of_record
TN:
SF:/usr/include/c++/13/bits/stl_uninitialized.h
FN:1069,1079,_ZSt19__relocate_object_aIN3gfx7Console7glyph_tES2_SaIS2_EEvPT_PT0_RT1_
FN:1091,1108,_ZSt14__relocate_a_1IPN3gfx7Console7glyph_tES3_SaIS2_EET0_T_S6_S5_RT1_
FN:113,128,_ZSt16__do_uninit_copyIN9__gnu_cxx17__normal_iteratorIPKN3gfx7Console7glyph_tESt6vectorIS4_SaIS4_EEEEPS4_ET0_T_SD_SC_
FN:113,128,_ZSt16__do_uninit_copyIPKN3gfx7Console7glyph_tEPS2_ET0_T_S7_S6_
FN:1141,1150,_ZSt12__relocate_aIPN3gfx7Console7glyph_tES3_SaIS2_EET0_T_S6_S5_RT1_
FN:135,137,_ZNSt20__uninitialized_copyILb0EE13__uninit_copyIN9__gnu_cxx17__normal_iteratorIPKN3gfx7Console7glyph_tESt6vectorIS6_SaIS6_EEEEPS6_EET0_T_SF_SE_
FN:135,137,_ZNSt20__uninitialized_copyILb0EE13__uninit_copyIPKN3gfx7Console7glyph_tEPS4_EET0_T_S9_S8_
FN:163,186,_ZSt18uninitialized_copyIN9__gnu_cxx17__normal_iteratorIPKN3gfx7Console7glyph_tESt6vectorIS4_SaIS4_EEEEPS4_ET0_T_SD_SC_
FN:163,186,_ZSt18uninitialized_copyIPKN3gfx7Console7glyph_tEPS2_ET0_T_S7_S6_
FN:366,374,_ZSt22__uninitialized_copy_aIN9__gnu_cxx17__normal_iteratorIPKN3gfx7Console7glyph_tESt6vectorIS4_SaIS4_EEEEPS4_S4_ET0_T_SD_SC_RSaIT1_E
FN:366,374,_ZSt22__uninitialized_copy_aIPKN3gfx7Console7glyph_tEPS2_S2_ET0_T_S7_S6_RSaIT1_E
FNDA:0,_ZSt19__relocate_object_aIN3gfx7Console7glyph_tES2_SaIS2_EEvPT_PT0_RT1_
FNDA:12,_ZSt14__relocate_a_1IPN3gfx7Console7glyph_tES3_SaIS2_EET0_T_S6_S5_RT1_
FNDA:1,_ZSt16__do_uninit_copyIN9__gnu_cxx17__normal_iteratorIPKN3gfx7Console7glyph_tESt6vectorIS4_SaIS4_EEEEPS4_ET0_T_SD_SC_
FNDA:1,_ZSt16__do_uninit_copyIPKN3gfx7Console7glyph_tEPS2_ET0_T_S7_S6_
FNDA:12,_ZSt12__relocate_aIPN3gfx7Console7glyph_tES3_SaIS2_EET0_T_S6_S5_RT1_
FNDA:1,_ZNSt20__uninitialized_copyILb0EE13__uninit_copyIN9__gnu_cxx17__normal_iteratorIPKN3gfx7Console7glyph_tESt6vectorIS6_SaIS6_EEEEPS6_EET0_T_SF_SE_
FNDA:1,_ZNSt20__uninitialized_copyILb0EE13__uninit_copyIPKN3gfx7Console7glyph_tEPS4_EET0_T_S9_S8_
FNDA:1,_ZSt18uninitialized_copyIN9__gnu_cxx17__normal_iteratorIPKN3gfx7Console7glyph_tESt6vectorIS4_SaIS4_EEEEPS4_ET0_T_SD_SC_
FNDA:1,_ZSt18uninitialized_copyIPKN3gfx7Console7glyph_tEPS2_ET0_T_S7_S6_
FNDA:1,_ZSt22__uninitialized_copy_aIN9__gnu_cxx17__normal_iteratorIPKN3gfx7Console7glyph_tESt6vectorIS4_SaIS4_EEEEPS4_S4_ET0_T_SD_SC_RSaIT1_E
FNDA:1,_ZSt22__uninitialized_copy_aIPKN3gfx7Console7glyph_tEPS2_S2_ET0_T_S7_S6_RSaIT1_E
FNF:11
FNH:10
DA:113,2
DA:116,2
DA:119,10
DA:120,8
DA:121,2
DA:135,2
DA:137,2
DA:163,2
DA:174,2
DA:181,2
DA:185,2
DA:366,2
DA:370,2
DA:371,0
DA:373,2
DA:1069,0
DA:1077,0
DA:1078,0
DA:1079,0
DA:1091,12
DA:1103,12
DA:1104,12
DA:1105,0
DA:1107,12
DA:1141,12
DA:1147,12
DA:1149,12
LF:27
LH:21
end_of_record
TN:
SF:/usr/include/c++/13/bits/stl_vector.h
FN:1078,1080,_ZNKSt6vectorIN3gfx7Console7glyph_tESaIS2_EE8capacityEv
FN:1126,1130,_ZNSt6vectorIN3gfx7Console7glyph_tESaIS2_EEixEm
FN:1145,1149,_ZNKSt6vectorIN3gfx7Console7glyph_tESaIS2_EEixEm
FN:1233,1237,_ZNSt6vectorIN3gfx7Console7glyph_tESaIS2_EE4backEv
FN:1298,1299,_ZNSt6vectorIN3gfx7Console7glyph_tESaIS2_EE9push_backEOS2_
FN:137,143,_ZNSt12_Vector_baseIN3gfx7Console7glyph_tESaIS2_EE12_Vector_implC2Ev
FN:146,148,_ZNSt12_Vector_baseIN3gfx7Console7glyph_tESaIS2_EE12_Vector_implC2ERKS3_
FN:1687,1698,_ZNSt6vectorIN3gfx7Console7glyph_tESaIS2_EE19_M_range_initializeIPKS2_EEvT_S8_St20forward_iterator_tag
FN:1896,1903,_ZNKSt6vectorIN3gfx7Console7glyph_tESaIS2_EE12_M_check_lenEmPKc
FN:1907,1913,_ZNSt6vectorIN3gfx7Console7glyph_tESaIS2_EE17_S_check_init_lenEmRKS3_
FN:1916,1925,_ZNSt6vectorIN3gfx7Console7glyph_tESaIS2_EE11_S_max_sizeERKS3_
FN:301,302,_ZNSt12_Vector_baseIN2sf6VertexESaIS1_EE19_M_get_Tp_allocatorEv
FN:301,302,_ZNSt12_Vector_baseIN3gfx7Console7glyph_tESaIS2_EE19_M_get_Tp_allocatorEv
FN:306,307,_ZNKSt12_Vector_baseIN3gfx7Console7glyph_tESaIS2_EE19_M_get_Tp_allocatorEv
FN:315,315,_ZNSt12_Vector_baseIN3gfx7Console7glyph_tESaIS2_EEC2Ev
FN:321,322,_ZNSt12_Vector_baseIN3gfx7Console7glyph_tESaIS2_EEC2ERKS3_
FN:333,335,_ZNSt12_Vector_baseIN3gfx7Console7glyph_tESaIS2_EEC2EmRKS3_
FN:367,371,_ZNSt12_Vector_baseIN2sf6VertexESaIS1_EED2Ev
FN:367,371,_ZNSt12_Vector_baseIN3gfx7Console7glyph_tESaIS2_EED2Ev
FN:378,382,_ZNSt12_Vector_baseIN3gfx7Console7glyph_tESaIS2_EE11_M_allocateEm
FN:386,391,_ZNSt12_Vector_baseIN2sf6VertexESaIS1_EE13_M_deallocateEPS1_m
FN:386,391,_ZNSt12_Vector_baseIN3gfx7Console7glyph_tESaIS2_EE13_M_deallocateEPS2_m
FN:396,401,_ZNSt12_Vector_baseIN3gfx7Console7glyph_tESaIS2_EE17_M_create_storageEm
FN:504,514,_ZNSt6vectorIN3gfx7Console7glyph_tESaIS2_EE11_S_relocateEPS2_S5_S5_RS3_
FN:531,531,_ZNSt6vectorIN3gfx7Console7glyph_tESaIS2_EEC2Ev
FN:601,609,_ZNSt6vectorIN3gfx7Console7glyph_tESaIS2_EEC2ERKS4_
FN:678,684,_ZNSt6vectorIN3gfx7Console7glyph_tESaIS2_EEC2ESt16initializer_listIS2_ERKS3_
FN:733,738,_ZNSt6vectorIN2sf6VertexESaIS1_EED2Ev
FN:733,738,_ZNSt6vectorIN3gfx7Console7glyph_tESaIS2_EED2Ev
FN:873,874,_ZNSt6vectorIN3gfx7Console7glyph_tESaIS2_EE5beginEv
FN:883,884,_ZNKSt6vectorIN3gfx7Console7glyph_tESaIS2_EE5beginEv
FN:893,894,_ZNSt6vectorIN3gfx7Console7glyph_tESaIS2_EE3endEv
FN:903,904,_ZNKSt6vectorIN3gfx7Console7glyph_tESaIS2_EE3endEv
FN:99,101,_ZNSt12_Vector_baseIN3gfx7Console7glyph_tESaIS2_EE17_Vector_impl_dataC2Ev
FN:992,993,_ZNKSt6vectorIN3gfx7Console7glyph_tESaIS2_EE4sizeEv
FN:998,999,_ZNKSt6vectorIN3gfx7Console7glyph_tESaIS2_EE8max_sizeEv
FNDA:12,_ZNKSt6vectorIN3gfx7Console7glyph_tESaIS2_EE8capacityEv
FNDA:24012,_ZNSt6vectorIN3gfx7Console7glyph_tESaIS2_EEixEm
FNDA:8,_ZNKSt6vectorIN3gfx7Console7glyph_tESaIS2_EEixEm
FNDA:8800,_ZNSt6vectorIN3gfx7Console7glyph_tESaIS2_EE4backEv
FNDA:8800,_ZNSt6vectorIN3gfx7Console7glyph_tESaIS2_EE9push_backEOS2_
FNDA:12,_ZNSt12_Vector_baseIN3gfx7Console7glyph_tESaIS2_EE12_Vector_implC2Ev
FNDA:2,_ZNSt12_Vector_baseIN3gfx7Console7glyph_tESaIS2_EE12_Vector_implC2ERKS3_
FNDA:1,_ZNSt6vectorIN3gfx7Console7glyph_tESaIS2_EE19_M_range_initializeIPKS2_EEvT_S8_St20forward_iterator_tag
FNDA:0,_ZNKSt6vectorIN3gfx7Console7glyph_tESaIS2_EE12_M_check_lenEmPKc
FNDA:1,_ZNSt6vectorIN3gfx7Console7glyph_tESaIS2_EE17_S_check_init_lenEmRKS3_
FNDA:13,_ZNSt6vectorIN3gfx7Console7glyph_tESaIS2_EE11_S_max_sizeERKS3_
FNDA:32,_ZNSt12_Vector_baseIN2sf6VertexESaIS1_EE19_M_get_Tp_allocatorEv
FNDA:17,_ZNSt12_Vector_baseIN3gfx7Console7glyph_tESaIS2_EE19_M_get_Tp_allocatorEv
FNDA:13,_ZNKSt12_Vector_baseIN3gfx7Console7glyph_tESaIS2_EE19_M_get_Tp_allocatorEv
FNDA:12,_ZNSt12_Vector_baseIN3gfx7Console7glyph_tESaIS2_EEC2Ev
FNDA:1,_ZNSt12_Vector_baseIN3gfx7Console7glyph_tESaIS2_EEC2ERKS3_
FNDA:1,_ZNSt12_Vector_baseIN3gfx7Console7glyph_tESaIS2_EEC2EmRKS3_
FNDA:32,_ZNSt12_Vector_baseIN2sf6VertexESaIS1_EED2Ev
FNDA:8,_ZNSt12_Vector_baseIN3gfx7Console7glyph_tESaIS2_EED2Ev
FNDA:14,_ZNSt12_Vector_baseIN3gfx7Console7glyph_tESaIS2_EE11_M_allocateEm
FNDA:32,_ZNSt12_Vector_baseIN2sf6VertexESaIS1_EE13_M_deallocateEPS1_m
FNDA:14,_ZNSt12_Vector_baseIN3gfx7Console7glyph_tESaIS2_EE13_M_deallocateEPS2_m
FNDA:1,_ZNSt12_Vector_baseIN3gfx7Console7glyph_tESaIS2_EE17_M_create_storageEm
FNDA:12,_ZNSt6vectorIN3gfx7Console7glyph_tESaIS2_EE11_S_relocateEPS2_S5_S5_RS3_
FNDA:12,_ZNSt6vectorIN3gfx7Console7glyph_tESaIS2_EEC2Ev
FNDA:1,_ZNSt6vectorIN3gfx7Console7glyph_tESaIS2_EEC2ERKS4_
FNDA:1,_ZNSt6vectorIN3gfx7Console7glyph_tESaIS2_EEC2ESt16initializer_listIS2_ERKS3_
FNDA:32,_ZNSt6vectorIN2sf6VertexESaIS1_EED2Ev
FNDA:8,_ZNSt6vectorIN3gfx7Console7glyph_tESaIS2_EED2Ev
FNDA:0,_ZNSt6vectorIN3gfx7Console7glyph_tESaIS2_EE5beginEv
FNDA:1,_ZNKSt6vectorIN3gfx7Console7glyph_tESaIS2_EE5beginEv
FNDA:8800,_ZNSt6vectorIN3gfx7Console7glyph_tESaIS2_EE3endEv
FNDA:1,_ZNKSt6vectorIN3gfx7Console7glyph_tESaIS2_EE3endEv
FNDA:14,_ZNSt12_Vector_baseIN3gfx7Console7glyph_tESaIS2_EE17_Vector_impl_dataC2Ev
FNDA:14,_ZNKSt6vectorIN3gfx7Console7glyph_tESaIS2_EE4sizeEv
FNDA:12,_ZNKSt6vectorIN3gfx7Console7glyph_tESaIS2_EE8max_sizeEv
FNF:36
FNH:34
DA:99,14
DA:100,14
DA:101,14
DA:137,12
DA:142,12
DA:143,12
DA:146,2
DA:147,2
DA:148,2
DA:301,49
DA:302,49
DA:306,13
DA:307,13
DA:315,12
DA:321,1
DA:322,1
DA:333,1
DA:334,1
DA:335,1
DA:367,40
DA:369,40
DA:370,40
DA:371,40
DA:378,14
DA:381,28
DA:386,46
DA:389,46
DA:390,20
DA:391,46
DA:396,1
DA:398,1
DA:399,1
DA:400,1
DA:401,1
DA:504,12
DA:509,12
DA:531,12
DA:601,1
DA:603,2
DA:605,1
DA:606,1
DA:608,1
DA:609,1
DA:678,1
DA:680,1
DA:682,1
DA:683,1
DA:684,1
DA:733,40
DA:735,40
DA:736,40
DA:738,40
DA:873,0
DA:874,0
DA:883,1
DA:884,1
DA:893,8800
DA:894,8800
DA:903,1
DA:904,1
DA:992,14
DA:993,14
DA:998,12
DA:999,12
DA:1078,12
DA:1079,12
DA:1080,12
DA:1126,24012
DA:1129,24012
DA:1145,8
DA:1148,8
DA:1233,8800
DA:1236,8800
DA:1298,8800
DA:1299,8800
DA:1687,1
DA:1690,1
DA:1692,1
DA:1693,1
DA:1694,1
DA:1695,1
DA:1697,1
DA:1698,1
DA:1896,0
DA:1898,0
DA:1899,0
DA:1901,0
DA:1902,0
DA:1907,1
DA:1909,1
DA:1910,0
DA:1912,1
DA:1916,13
DA:1921,13
DA:1923,13
DA:1924,13
LF:96
LH:88
end_of_record
TN:
SF:/usr/include/c++/13/bits/unique_ptr.h
FN:174,174,_ZNSt15__uniq_ptr_implINSt7__cxx1112basic_stringIcSt11char_traitsIcESaIcEEESt14default_deleteIS5_EEC2Ev
FN:197,197,_ZNSt15__uniq_ptr_implINSt7__cxx1112basic_stringIcSt11char_traitsIcESaIcEEESt14default_deleteIS5_EE6_M_ptrEv
FN:197,197,_ZNSt15__uniq_ptr_implINSt7__cxx1118basic_stringstreamIcSt11char_traitsIcESaIcEEESt14default_deleteIS5_EE6_M_ptrEv
FN:199,199,_ZNKSt15__uniq_ptr_implINSt7__cxx1112basic_stringIcSt11char_traitsIcESaIcEEESt14default_deleteIS5_EE6_M_ptrEv
FN:201,201,_ZNSt15__uniq_ptr_implINSt7__cxx1112basic_stringIcSt11char_traitsIcESaIcEEESt14default_deleteIS5_EE10_M_deleterEv
FN:201,201,_ZNSt15__uniq_ptr_implINSt7__cxx1118basic_stringstreamIcSt11char_traitsIcESaIcEEESt14default_deleteIS5_EE10_M_deleterEv
FN:304,306,_ZNSt10unique_ptrINSt7__cxx1112basic_stringIcSt11char_traitsIcESaIcEEESt14default_deleteIS5_EEC2IS7_vEEv
FN:398,406,_ZNSt10unique_ptrINSt7__cxx1112basic_stringIcSt11char_traitsIcESaIcEEESt14default_deleteIS5_EED2Ev
FN:398,406,_ZNSt10unique_ptrINSt7__cxx1118basic_stringstreamIcSt11char_traitsIcESaIcEEESt14default_deleteIS5_EED2Ev
FN:460,464,_ZNKSt10unique_ptrINSt7__cxx1112basic_stringIcSt11char_traitsIcESaIcEEESt14default_deleteIS5_EEptEv
FN:469,470,_ZNKSt10unique_ptrINSt7__cxx1112basic_stringIcSt11char_traitsIcESaIcEEESt14default_deleteIS5_EE3getEv
FN:475,476,_ZNSt10unique_ptrINSt7__cxx1112basic_stringIcSt11char_traitsIcESaIcEEESt14default_deleteIS5_EE11get_deleterEv
FN:475,476,_ZNSt10unique_ptrINSt7__cxx1118basic_stringstreamIcSt11char_traitsIcESaIcEEESt14default_deleteIS5_EE11get_deleterEv
FN:486,487,_ZNKSt10unique_ptrINSt7__cxx1112basic_stringIcSt11char_traitsIcESaIcEEESt14default_deleteIS5_EEcvbEv
FN:837,838,_ZSteqINSt7__cxx1112basic_stringIcSt11char_traitsIcESaIcEEESt14default_deleteIS5_EEbRKSt10unique_ptrIT_T0_EDn
FN:93,100,_ZNKSt14default_deleteINSt7__cxx1112basic_stringIcSt11char_traitsIcESaIcEEEEclEPS5_
FN:93,100,_ZNKSt14default_deleteINSt7__cxx1118basic_stringstreamIcSt11char_traitsIcESaIcEEEEclEPS5_
FNDA:1,_ZNSt15__uniq_ptr_implINSt7__cxx1112basic_stringIcSt11char_traitsIcESaIcEEESt14default_deleteIS5_EEC2Ev
FNDA:13,_ZNSt15__uniq_ptr_implINSt7__cxx1112basic_stringIcSt11char_traitsIcESaIcEEESt14default_deleteIS5_EE6_M_ptrEv
FNDA:0,_ZNSt15__uniq_ptr_implINSt7__cxx1118basic_stringstreamIcSt11char_traitsIcESaIcEEESt14default_deleteIS5_EE6_M_ptrEv
FNDA:0,_ZNKSt15__uniq_ptr_implINSt7__cxx1112basic_stringIcSt11char_traitsIcESaIcEEESt14default_deleteIS5_EE6_M_ptrEv
FNDA:0,_ZNSt15__uniq_ptr_implINSt7__cxx1112basic_stringIcSt11char_traitsIcESaIcEEESt14default_deleteIS5_EE10_M_deleterEv
FNDA:0,_ZNSt15__uniq_ptr_implINSt7__cxx1118basic_stringstreamIcSt11char_traitsIcESaIcEEESt14default_deleteIS5_EE10_M_deleterEv
FNDA:1,_ZNSt10unique_ptrINSt7__cxx1112basic_stringIcSt11char_traitsIcESaIcEEESt14default_deleteIS5_EEC2IS7_vEEv
FNDA:13,_ZNSt10unique_ptrINSt7__cxx1112basic_stringIcSt11char_traitsIcESaIcEEESt14default_deleteIS5_EED2Ev
FNDA:0,_ZNSt10unique_ptrINSt7__cxx1118basic_stringstreamIcSt11char_traitsIcESaIcEEESt14default_deleteIS5_EED2Ev
FNDA:0,_ZNKSt10unique_ptrINSt7__cxx1112basic_stringIcSt11char_traitsIcESaIcEEESt14default_deleteIS5_EEptEv
FNDA:0,_ZNKSt10unique_ptrINSt7__cxx1112basic_stringIcSt11char_traitsIcESaIcEEESt14default_deleteIS5_EE3getEv
FNDA:0,_ZNSt10unique_ptrINSt7__cxx1112basic_stringIcSt11char_traitsIcESaIcEEESt14default_deleteIS5_EE11get_deleterEv
FNDA:0,_ZNSt10unique_ptrINSt7__cxx1118basic_stringstreamIcSt11char_traitsIcESaIcEEESt14default_deleteIS5_EE11get_deleterEv
FNDA:0,_ZNKSt10unique_ptrINSt7__cxx1112basic_stringIcSt11char_traitsIcESaIcEEESt14default_deleteIS5_EEcvbEv
FNDA:0,_ZSteqINSt7__cxx1112basic_stringIcSt11char_traitsIcESaIcEEESt14default_deleteIS5_EEbRKSt10unique_ptrIT_T0_EDn
FNDA:0,_ZNKSt14default_deleteINSt7__cxx1112basic_stringIcSt11char_traitsIcESaIcEEEEclEPS5_
FNDA:0,_ZNKSt14default_deleteINSt7__cxx1118basic_stringstreamIcSt11char_traitsIcESaIcEEEEclEPS5_
FNF:17
FNH:4
DA:93,0
DA:99,0
DA:100,0
DA:174,1
DA:197,13
DA:199,0
DA:201,0
DA:304,1
DA:305,1
DA:306,1
DA:398,13
DA:402,13
DA:403,13
DA:404,0
DA:405,13
DA:406,13
DA:460,0
DA:463,0
DA:469,0
DA:470,0
DA:475,0
DA:476,0
DA:486,0
DA:487,0
DA:837,0
DA:838,0
LF:26
LH:10
end_of_record
TN:
SF:/usr/include/c++/13/bits/vector.tcc
FN:111,127,_ZNSt6vectorIN3gfx7Console7glyph_tESaIS2_EE12emplace_backIJS2_EEERS2_DpOT_
FN:445,524,_ZNSt6vectorIN3gfx7Console7glyph_tESaIS2_EE17_M_realloc_insertIJS2_EEEvN9__gnu_cxx17__normal_iteratorIPS2_S4_EEDpOT_
FN:67,100,_ZNSt6vectorIN3gfx7Console7glyph_tESaIS2_EE7reserveEm
FNDA:8800,_ZNSt6vectorIN3gfx7Console7glyph_tESaIS2_EE12emplace_backIJS2_EEERS2_DpOT_
FNDA:0,_ZNSt6vectorIN3gfx7Console7glyph_tESaIS2_EE17_M_realloc_insertIJS2_EEEvN9__gnu_cxx17__normal_iteratorIPS2_S4_EEDpOT_
FNDA:12,_ZNSt6vectorIN3gfx7Console7glyph_tESaIS2_EE7reserveEm
FNF:3
FNH:2
DA:67,12
DA:70,12
DA:71,0
DA:72,12
DA:74,12
DA:79,12
DA:80,12
DA:81,12
DA:93,12
DA:94,12
DA:95,12
DA:96,12
DA:97,12
DA:98,12
DA:100,12
DA:111,8800
DA:114,8800
DA:117,8800
DA:119,8800
DA:123,0
DA:125,8800
DA:445,0
DA:455,0
DA:456,0
DA:457,0
DA:458,0
DA:459,0
DA:460,0
DA:468,0
DA:469,0
DA:475,0
DA:480,0
DA:481,0
DA:483,0
DA:485,0
DA:486,0
DA:519,0
DA:520,0
DA:521,0
DA:522,0
DA:523,0
DA:524,0
LF:42
LH:19
end_of_record
TN:
SF:/usr/include/c++/13/cmath
FN:1070,1074,_ZSt3powIjiEN9__gnu_cxx11__promote_2IDTplcvNS1_IT_XsrSt12__is_integerIS2_E7__valueEE6__typeELi0EcvNS1_IT0_XsrS3_IS7_E7__valueEE6__typeELi0EEXsrS3_ISB_E7__valueEE6__typeES2_S7_
FNDA:4,_ZSt3powIjiEN9__gnu_cxx11__promote_2IDTplcvNS1_IT_XsrSt12__is_integerIS2_E7__valueEE6__typeELi0EcvNS1_IT0_XsrS3_IS7_E7__valueEE6__typeELi0EEXsrS3_ISB_E7__valueEE6__typeES2_S7_
FNF:1
FNH:1
DA:1070,4
DA:1073,4
LF:2
LH:2
end_of_record
TN:
SF:/usr/include/c++/13/ext/alloc_traits.h
FNF:0
FNH:0
DA:98,16
LF:1
LH:1
end_of_record
TN:
SF:/usr/include/c++/13/ext/string_conversions.h
FN:101,118,_ZN9__gnu_cxx12__to_xstringINSt7__cxx1112basic_stringIcSt11char_traitsIcESaIcEEEcEET_PFiPT0_mPKS8_P13__va_list_tagEmSB_z
FNDA:48,_ZN9__gnu_cxx12__to_xstringINSt7__cxx1112basic_stringIcSt11char_traitsIcESaIcEEEcEET_PFiPT0_mPKS8_P13__va_list_tagEmSB_z
FNF:1
FNH:1
DA:101,48
DA:107,48
DA:111,48
DA:113,48
DA:115,48
DA:117,96
LF:6
LH:6
end_of_record
TN:
SF:/usr/include/c++/13/initializer_list
FN:69,69,_ZNKSt16initializer_listIN3gfx7Console7glyph_tEE4sizeEv
FN:73,73,_ZNKSt16initializer_listIN3gfx7Console7glyph_tEE5beginEv
FN:77,77,_ZNKSt16initializer_listIN3gfx7Console7glyph_tEE3endEv
FNDA:1,_ZNKSt16initializer_listIN3gfx7Console7glyph_tEE4sizeEv
FNDA:2,_ZNKSt16initializer_listIN3gfx7Console7glyph_tEE5beginEv
FNDA:1,_ZNKSt16initializer_listIN3gfx7Console7glyph_tEE3endEv
FNF:3
FNH:3
DA:69,1
DA:73,2
DA:77,1
LF:3
LH:3
end_of_record
TN:
SF:/usr/include/c++/13/iomanip
FN:197,198,_ZSt12setprecisioni
FNDA:0,_ZSt12setprecisioni
FNF:1
FNH:0
DA:197,0
DA:198,0
LF:2
LH:0
end_of_record
TN:
SF:/usr/include/c++/13/new
FN:174,175,_ZnwmPv
FNDA:2508,_ZnwmPv
FNF:1
FNH:1
DA:174,2508
DA:175,2508
LF:2
LH:2
end_of_record
TN:
SF:/usr/include/c++/13/source_location
FN:70,71,_ZNKSt15source_location4lineEv
FN:74,75,_ZNKSt15source_location6columnEv
FN:78,79,_ZNKSt15source_location9file_nameEv
FNDA:51,_ZNKSt15source_location4lineEv
FNDA:51,_ZNKSt15source_location6columnEv
FNDA:51,_ZNKSt15source_location9file_nameEv
FNF:3
FNH:3
DA:70,51
DA:71,51
DA:74,51
DA:75,51
DA:78,51
DA:79,51
LF:6
LH:6
end_of_record
TN:
SF:/usr/include/c++/13/tuple
FN:125,125,_ZNSt10_Head_baseILm1ESt14default_deleteINSt7__cxx1112basic_stringIcSt11char_traitsIcESaIcEEEELb1EE7_M_headERS8_
FN:125,125,_ZNSt10_Head_baseILm1ESt14default_deleteINSt7__cxx1118basic_stringstreamIcSt11char_traitsIcESaIcEEEELb1EE7_M_headERS8_
FN:1317,1319,_ZNSt5tupleIJPNSt7__cxx1112basic_stringIcSt11char_traitsIcESaIcEEESt14default_deleteIS5_EEEC2ILb1ELb1EEEv
FN:1787,1788,_ZSt12__get_helperILm0EPNSt7__cxx1112basic_stringIcSt11char_traitsIcESaIcEEEJSt14default_deleteIS5_EEERT0_RSt11_Tuple_implIXT_EJS9_DpT1_EE
FN:1787,1788,_ZSt12__get_helperILm0EPNSt7__cxx1118basic_stringstreamIcSt11char_traitsIcESaIcEEEJSt14default_deleteIS5_EEERT0_RSt11_Tuple_implIXT_EJS9_DpT1_EE
FN:1787,1788,_ZSt12__get_helperILm1ESt14default_deleteINSt7__cxx1112basic_stringIcSt11char_traitsIcESaIcEEEEJEERT0_RSt11_Tuple_implIXT_EJS8_DpT1_EE
FN:1787,1788,_ZSt12__get_helperILm1ESt14default_deleteINSt7__cxx1118basic_stringstreamIcSt11char_traitsIcESaIcEEEEJEERT0_RSt11_Tuple_implIXT_EJS8_DpT1_EE
FN:1792,1793,_ZSt12__get_helperILm0EPNSt7__cxx1112basic_stringIcSt11char_traitsIcESaIcEEEJSt14default_deleteIS5_EEERKT0_RKSt11_Tuple_implIXT_EJS9_DpT1_EE
FN:1803,1804,_ZSt3getILm0EJPNSt7__cxx1112basic_stringIcSt11char_traitsIcESaIcEEESt14default_deleteIS5_EEERNSt13tuple_elementIXT_ESt5tupleIJDpT0_EEE4typeERSD_
FN:1803,1804,_ZSt3getILm0EJPNSt7__cxx1118basic_stringstreamIcSt11char_traitsIcESaIcEEESt14default_deleteIS5_EEERNSt13tuple_elementIXT_ESt5tupleIJDpT0_EEE4typeERSD_
FN:1803,1804,_ZSt3getILm1EJPNSt7__cxx1112basic_stringIcSt11char_traitsIcESaIcEEESt14default_deleteIS5_EEERNSt13tuple_elementIXT_ESt5tupleIJDpT0_EEE4typeERSD_
FN:1803,1804,_ZSt3getILm1EJPNSt7__cxx1118basic_stringstreamIcSt11char_traitsIcESaIcEEESt14default_deleteIS5_EEERNSt13tuple_elementIXT_ESt5tupleIJDpT0_EEE4typeERSD_
FN:1809,1810,_ZSt3getILm0EJPNSt7__cxx1112basic_stringIcSt11char_traitsIcESaIcEEESt14default_deleteIS5_EEERKNSt13tuple_elementIXT_ESt5tupleIJDpT0_EEE4typeERKSD_
FN:190,191,_ZNSt10_Head_baseILm0EPNSt7__cxx1112basic_stringIcSt11char_traitsIcESaIcEEELb0EEC2Ev
FN:234,234,_ZNSt10_Head_baseILm0EPNSt7__cxx1112basic_stringIcSt11char_traitsIcESaIcEEELb0EE7_M_headERS7_
FN:234,234,_ZNSt10_Head_baseILm0EPNSt7__cxx1118basic_stringstreamIcSt11char_traitsIcESaIcEEELb0EE7_M_headERS7_
FN:237,237,_ZNSt10_Head_baseILm0EPNSt7__cxx1112basic_stringIcSt11char_traitsIcESaIcEEELb0EE7_M_headERKS7_
FN:269,269,_ZNSt11_Tuple_implILm0EJPNSt7__cxx1112basic_stringIcSt11char_traitsIcESaIcEEESt14default_deleteIS5_EEE7_M_headERS9_
FN:269,269,_ZNSt11_Tuple_implILm0EJPNSt7__cxx1118basic_stringstreamIcSt11char_traitsIcESaIcEEESt14default_deleteIS5_EEE7_M_headERS9_
FN:272,272,_ZNSt11_Tuple_implILm0EJPNSt7__cxx1112basic_stringIcSt11char_traitsIcESaIcEEESt14default_deleteIS5_EEE7_M_headERKS9_
FN:280,281,_ZNSt11_Tuple_implILm0EJPNSt7__cxx1112basic_stringIcSt11char_traitsIcESaIcEEESt14default_deleteIS5_EEEC2Ev
FN:497,497,_ZNSt11_Tuple_implILm1EJSt14default_deleteINSt7__cxx1112basic_stringIcSt11char_traitsIcESaIcEEEEEE7_M_headERS8_
FN:497,497,_ZNSt11_Tuple_implILm1EJSt14default_deleteINSt7__cxx1118basic_stringstreamIcSt11char_traitsIcESaIcEEEEEE7_M_headERS8_
FN:503,504,_ZNSt11_Tuple_implILm1EJSt14default_deleteINSt7__cxx1112basic_stringIcSt11char_traitsIcESaIcEEEEEEC2Ev
FN:81,82,_ZNSt10_Head_baseILm1ESt14default_deleteINSt7__cxx1112basic_stringIcSt11char_traitsIcESaIcEEEELb1EEC2Ev
FNDA:0,_ZNSt10_Head_baseILm1ESt14default_deleteINSt7__cxx1112basic_stringIcSt11char_traitsIcESaIcEEEELb1EE7_M_headERS8_
FNDA:0,_ZNSt10_Head_baseILm1ESt14default_deleteINSt7__cxx1118basic_stringstreamIcSt11char_traitsIcESaIcEEEELb1EE7_M_headERS8_
FNDA:1,_ZNSt5tupleIJPNSt7__cxx1112basic_stringIcSt11char_traitsIcESaIcEEESt14default_deleteIS5_EEEC2ILb1ELb1EEEv
FNDA:13,_ZSt12__get_helperILm0EPNSt7__cxx1112basic_stringIcSt11char_traitsIcESaIcEEEJSt14default_deleteIS5_EEERT0_RSt11_Tuple_implIXT_EJS9_DpT1_EE
FNDA:0,_ZSt12__get_helperILm0EPNSt7__cxx1118basic_stringstreamIcSt11char_traitsIcESaIcEEEJSt14default_deleteIS5_EEERT0_RSt11_Tuple_implIXT_EJS9_DpT1_EE
FNDA:0,_ZSt12__get_helperILm1ESt14default_deleteINSt7__cxx1112basic_stringIcSt11char_traitsIcESaIcEEEEJEERT0_RSt11_Tuple_implIXT_EJS8_DpT1_EE
FNDA:0,_ZSt12__get_helperILm1ESt14default_deleteINSt7__cxx1118basic_stringstreamIcSt11char_traitsIcESaIcEEEEJEERT0_RSt11_Tuple_implIXT_EJS8_DpT1_EE
FNDA:0,_ZSt12__get_helperILm0EPNSt7__cxx1112basic_stringIcSt11char_traitsIcESaIcEEEJSt14default_deleteIS5_EEERKT0_RKSt11_Tuple_implIXT_EJS9_DpT1_EE
FNDA:13,_ZSt3getILm0EJPNSt7__cxx1112basic_stringIcSt11char_traitsIcESaIcEEESt14default_deleteIS5_EEERNSt13tuple_elementIXT_ESt5tupleIJDpT0_EEE4typeERSD_
FNDA:0,_ZSt3getILm0EJPNSt7__cxx1118basic_stringstreamIcSt11char_traitsIcESaIcEEESt14default_deleteIS5_EEERNSt13tuple_elementIXT_ESt5tupleIJDpT0_EEE4typeERSD_
FNDA:0,_ZSt3getILm1EJPNSt7__cxx1112basic_stringIcSt11char_traitsIcESaIcEEESt14default_deleteIS5_EEERNSt13tuple_elementIXT_ESt5tupleIJDpT0_EEE4typeERSD_
FNDA:0,_ZSt3getILm1EJPNSt7__cxx1118basic_stringstreamIcSt11char_traitsIcESaIcEEESt14default_deleteIS5_EEERNSt13tuple_elementIXT_ESt5tupleIJDpT0_EEE4typeERSD_
FNDA:0,_ZSt3getILm0EJPNSt7__cxx1112basic_stringIcSt11char_traitsIcESaIcEEESt14default_deleteIS5_EEERKNSt13tuple_elementIXT_ESt5tupleIJDpT0_EEE4typeERKSD_
FNDA:1,_ZNSt10_Head_baseILm0EPNSt7__cxx1112basic_stringIcSt11char_traitsIcESaIcEEELb0EEC2Ev
FNDA:13,_ZNSt10_Head_baseILm0EPNSt7__cxx1112basic_stringIcSt11char_traitsIcESaIcEEELb0EE7_M_headERS7_
FNDA:0,_ZNSt10_Head_baseILm0EPNSt7__cxx1118basic_stringstreamIcSt11char_traitsIcESaIcEEELb0EE7_M_headERS7_
FNDA:0,_ZNSt10_Head_baseILm0EPNSt7__cxx1112basic_stringIcSt11char_traitsIcESaIcEEELb0EE7_M_headERKS7_
FNDA:13,_ZNSt11_Tuple_implILm0EJPNSt7__cxx1112basic_stringIcSt11char_traitsIcESaIcEEESt14default_deleteIS5_EEE7_M_headERS9_
FNDA:0,_ZNSt11_Tuple_implILm0EJPNSt7__cxx1118basic_stringstreamIcSt11char_traitsIcESaIcEEESt14default_deleteIS5_EEE7_M_headERS9_
FNDA:0,_ZNSt11_Tuple_implILm0EJPNSt7__cxx1112basic_stringIcSt11char_traitsIcESaIcEEESt14default_deleteIS5_EEE7_M_headERKS9_
FNDA:1,_ZNSt11_Tuple_implILm0EJPNSt7__cxx1112basic_stringIcSt11char_traitsIcESaIcEEESt14default_deleteIS5_EEEC2Ev
FNDA:0,_ZNSt11_Tuple_implILm1EJSt14default_deleteINSt7__cxx1112basic_stringIcSt11char_traitsIcESaIcEEEEEE7_M_headERS8_
FNDA:0,_ZNSt11_Tuple_implILm1EJSt14default_deleteINSt7__cxx1118basic_stringstreamIcSt11char_traitsIcESaIcEEEEEE7_M_headERS8_
FNDA:1,_ZNSt11_Tuple_implILm1EJSt14default_deleteINSt7__cxx1112basic_stringIcSt11char_traitsIcESaIcEEEEEEC2Ev
FNDA:1,_ZNSt10_Head_baseILm1ESt14default_deleteINSt7__cxx1112basic_stringIcSt11char_traitsIcESaIcEEEELb1EEC2Ev
FNF:25
FNH:9
DA:81,1
DA:82,1
DA:125,0
DA:190,1
DA:191,1
DA:234,13
DA:237,0
DA:269,13
DA:272,0
DA:280,1
DA:281,1
DA:497,0
DA:503,1
DA:504,1
DA:1317,1
DA:1319,1
DA:1787,13
DA:1788,13
DA:1792,0
DA:1793,0
DA:1803,13
DA:1804,13
DA:1809,0
DA:1810,0
LF:24
LH:16
end_of_record
TN:
SF:/usr/include/c++/13/type_traits
FN:3649,3656,_ZSt21is_constant_evaluatedv
FNDA:356,_ZSt21is_constant_evaluatedv
FNF:1
FNH:1
DA:3649,356
DA:3654,356
LF:2
LH:2
end_of_record
TN:
SF:/usr/include/c++/13/typeinfo
FN:103,104,_ZNKSt9type_info4nameEv
FNDA:0,_ZNKSt9type_info4nameEv
FNF:1
FNH:0
DA:103,0
DA:104,0
LF:2
LH:0
end_of_record
TN:
SF:/usr/include/gtest/gtest-assertion-result.h
FN:155,161,_ZN7testing15AssertionResultC2IbEERKT_PNSt9enable_ifIXntsrSt14is_convertibleIS2_S0_E5valueEvE4typeE
FN:174,174,_ZNK7testing15AssertionResultcvbEv
FN:183,185,_ZNK7testing15AssertionResult7messageEv
FN:187,187,_ZNK7testing15AssertionResult15failure_messageEv
FNDA:1,_ZN7testing15AssertionResultC2IbEERKT_PNSt9enable_ifIXntsrSt14is_convertibleIS2_S0_E5valueEvE4typeE
FNDA:13,_ZNK7testing15AssertionResultcvbEv
FNDA:0,_ZNK7testing15AssertionResult7messageEv
FNDA:0,_ZNK7testing15AssertionResult15failure_messageEv
FNF:4
FNH:2
DA:155,1
DA:161,1
DA:174,13
DA:183,0
DA:184,0
DA:187,0
LF:6
LH:3
end_of_record
TN:
SF:/usr/include/gtest/gtest-message.h
FNF:0
FNH:0
LF:0
LH:0
end_of_record
TN:
SF:/usr/include/gtest/gtest-printers.h
FN:1017,1023,_ZN7testing8internal21UniversalTersePrinterIPKcE5PrintES3_PSo
FN:1108,1113,_ZN7testing8internal14UniversalPrintIN2sf5ColorEEEvRKT_PSo
FN:1108,1113,_ZN7testing8internal14UniversalPrintINSt7__cxx1112basic_stringIcSt11char_traitsIcESaIcEEEEEvRKT_PSo
FN:1108,1113,_ZN7testing8internal14UniversalPrintIcEEvRKT_PSo
FN:1148,1152,_ZN7testing13PrintToStringIN2sf5ColorEEENSt7__cxx1112basic_stringIcSt11char_traitsIcESaIcEEERKT_
FN:1148,1152,_ZN7testing13PrintToStringINSt7__cxx1112basic_stringIcSt11char_traitsIcESaIcEEEEES6_RKT_
FN:1148,1152,_ZN7testing13PrintToStringIPKcEENSt7__cxx1112basic_stringIcSt11char_traitsIcESaIcEEERKT_
FN:1148,1152,_ZN7testing13PrintToStringIcEENSt7__cxx1112basic_stringIcSt11char_traitsIcESaIcEEERKT_
FN:289,295,_ZN7testing8internal15RawBytesPrinter10PrintValueIN2sf5ColorELm4EEEvRKT_PSo
FN:326,337,_ZN7testing8internal17PrintWithFallbackIN2sf5ColorEEEvRKT_PSo
FN:357,359,_ZN7testing8internal19FormatForComparisonIN2sf5ColorES3_E6FormatB5cxx11ERKS3_
FN:357,359,_ZN7testing8internal19FormatForComparisonINSt7__cxx1112basic_stringIcSt11char_traitsIcESaIcEEEA11_cE6FormatERKS7_
FN:357,359,_ZN7testing8internal19FormatForComparisonINSt7__cxx1112basic_stringIcSt11char_traitsIcESaIcEEEA7_cE6FormatERKS7_
FN:357,359,_ZN7testing8internal19FormatForComparisonIccE6FormatB5cxx11ERKc
FN:366,368,_ZN7testing8internal19FormatForComparisonIA11_cNSt7__cxx1112basic_stringIcSt11char_traitsIcESaIcEEEE6FormatEPKc
FN:366,368,_ZN7testing8internal19FormatForComparisonIA7_cNSt7__cxx1112basic_stringIcSt11char_traitsIcESaIcEEEE6FormatEPKc
FN:411,411,_ZN7testing8internal19FormatForComparisonIPKcNSt7__cxx1112basic_stringIcSt11char_traitsIcESaIcEEEE6FormatES3_
FN:437,440,_ZN7testing8internal33FormatForComparisonFailureMessageIA11_cNSt7__cxx1112basic_stringIcSt11char_traitsIcESaIcEEEEES8_RKT_RKT0_
FN:437,440,_ZN7testing8internal33FormatForComparisonFailureMessageIA7_cNSt7__cxx1112basic_stringIcSt11char_traitsIcESaIcEEEEES8_RKT_RKT0_
FN:437,440,_ZN7testing8internal33FormatForComparisonFailureMessageIN2sf5ColorES3_EENSt7__cxx1112basic_stringIcSt11char_traitsIcESaIcEEERKT_RKT0_
FN:437,440,_ZN7testing8internal33FormatForComparisonFailureMessageINSt7__cxx1112basic_stringIcSt11char_traitsIcESaIcEEEA11_cEES7_RKT_RKT0_
FN:437,440,_ZN7testing8internal33FormatForComparisonFailureMessageINSt7__cxx1112basic_stringIcSt11char_traitsIcESaIcEEEA7_cEES7_RKT_RKT0_
FN:437,440,_ZN7testing8internal33FormatForComparisonFailureMessageIccEENSt7__cxx1112basic_stringIcSt11char_traitsIcESaIcEEERKT_RKT0_
FN:464,466,_ZN7testing8internal7PrintToIN2sf5ColorEEEvRKT_PSo
FN:475,480,_ZN7testing8internal7PrintToEcPSo
FN:660,662,_ZN7testing8internal7PrintToERKNSt7__cxx1112basic_stringIcSt11char_traitsIcESaIcEEEPSo
FN:799,809,_ZN7testing8internal16UniversalPrinterIN2sf5ColorEE5PrintERKS3_PSo
FN:799,809,_ZN7testing8internal16UniversalPrinterINSt7__cxx1112basic_stringIcSt11char_traitsIcESaIcEEEE5PrintERKS7_PSo
FN:799,809,_ZN7testing8internal16UniversalPrinterIcE5PrintERKcPSo
FN:989,991,_ZN7testing8internal21UniversalTersePrinterIN2sf5ColorEE5PrintERKS3_PSo
FN:989,991,_ZN7testing8internal21UniversalTersePrinterINSt7__cxx1112basic_stringIcSt11char_traitsIcESaIcEEEE5PrintERKS7_PSo
FN:989,991,_ZN7testing8internal21UniversalTersePrinterIcE5PrintERKcPSo
FNDA:0,_ZN7testing8internal21UniversalTersePrinterIPKcE5PrintES3_PSo
FNDA:0,_ZN7testing8internal14UniversalPrintIN2sf5ColorEEEvRKT_PSo
FNDA:0,_ZN7testing8internal14UniversalPrintINSt7__cxx1112basic_stringIcSt11char_traitsIcESaIcEEEEEvRKT_PSo
FNDA:0,_ZN7testing8internal14UniversalPrintIcEEvRKT_PSo
FNDA:0,_ZN7testing13PrintToStringIN2sf5ColorEEENSt7__cxx1112basic_stringIcSt11char_traitsIcESaIcEEERKT_
FNDA:0,_ZN7testing13PrintToStringINSt7__cxx1112basic_stringIcSt11char_traitsIcESaIcEEEEES6_RKT_
FNDA:0,_ZN7testing13PrintToStringIPKcEENSt7__cxx1112basic_stringIcSt11char_traitsIcESaIcEEERKT_
FNDA:0,_ZN7testing13PrintToStringIcEENSt7__cxx1112basic_stringIcSt11char_traitsIcESaIcEEERKT_
FNDA:0,_ZN7testing8internal15RawBytesPrinter10PrintValueIN2sf5ColorELm4EEEvRKT_PSo
FNDA:0,_ZN7testing8internal17PrintWithFallbackIN2sf5ColorEEEvRKT_PSo
FNDA:0,_ZN7testing8internal19FormatForComparisonIN2sf5ColorES3_E6FormatB5cxx11ERKS3_
FNDA:0,_ZN7testing8internal19FormatForComparisonINSt7__cxx1112basic_stringIcSt11char_traitsIcESaIcEEEA11_cE6FormatERKS7_
FNDA:0,_ZN7testing8internal19FormatForComparisonINSt7__cxx1112basic_stringIcSt11char_traitsIcESaIcEEEA7_cE6FormatERKS7_
FNDA:0,_ZN7testing8internal19FormatForComparisonIccE6FormatB5cxx11ERKc
FNDA:0,_ZN7testing8internal19FormatForComparisonIA11_cNSt7__cxx1112basic_stringIcSt11char_traitsIcESaIcEEEE6FormatEPKc
FNDA:0,_ZN7testing8internal19FormatForComparisonIA7_cNSt7__cxx1112basic_stringIcSt11char_traitsIcESaIcEEEE6FormatEPKc
FNDA:0,_ZN7testing8internal19FormatForComparisonIPKcNSt7__cxx1112basic_stringIcSt11char_traitsIcESaIcEEEE6FormatES3_
FNDA:0,_ZN7testing8internal33FormatForComparisonFailureMessageIA11_cNSt7__cxx1112basic_stringIcSt11char_traitsIcESaIcEEEEES8_RKT_RKT0_
FNDA:0,_ZN7testing8internal33FormatForComparisonFailureMessageIA7_cNSt7__cxx1112basic_stringIcSt11char_traitsIcESaIcEEEEES8_RKT_RKT0_
FNDA:0,_ZN7testing8internal33FormatForComparisonFailureMessageIN2sf5ColorES3_EENSt7__cxx1112basic_stringIcSt11char_traitsIcESaIcEEERKT_RKT0_
FNDA:0,_ZN7testing8internal33FormatForComparisonFailureMessageINSt7__cxx1112basic_stringIcSt11char_traitsIcESaIcEEEA11_cEES7_RKT_RKT0_
FNDA:0,_ZN7testing8internal33FormatForComparisonFailureMessageINSt7__cxx1112basic_stringIcSt11char_traitsIcESaIcEEEA7_cEES7_RKT_RKT0_
FNDA:0,_ZN7testing8internal33FormatForComparisonFailureMessageIccEENSt7__cxx1112basic_stringIcSt11char_traitsIcESaIcEEERKT_RKT0_
FNDA:0,_ZN7testing8internal7PrintToIN2sf5ColorEEEvRKT_PSo
FNDA:0,_ZN7testing8internal7PrintToEcPSo
FNDA:0,_ZN7testing8internal7PrintToERKNSt7__cxx1112basic_stringIcSt11char_traitsIcESaIcEEEPSo
FNDA:0,_ZN7testing8internal16UniversalPrinterIN2sf5ColorEE5PrintERKS3_PSo
FNDA:0,_ZN7testing8internal16UniversalPrinterINSt7__cxx1112basic_stringIcSt11char_traitsIcESaIcEEEE5PrintERKS7_PSo
FNDA:0,_ZN7testing8internal16UniversalPrinterIcE5PrintERKcPSo
FNDA:0,_ZN7testing8internal21UniversalTersePrinterIN2sf5ColorEE5PrintERKS3_PSo
FNDA:0,_ZN7testing8internal21UniversalTersePrinterINSt7__cxx1112basic_stringIcSt11char_traitsIcESaIcEEEE5PrintERKS7_PSo
FNDA:0,_ZN7testing8internal21UniversalTersePrinterIcE5PrintERKcPSo
FNF:32
FNH:0
DA:289,0
DA:290,0
DA:293,0
DA:295,0
DA:326,0
DA:336,0
DA:337,0
DA:357,0
DA:358,0
DA:366,0
DA:367,0
DA:411,0
DA:437,0
DA:439,0
DA:464,0
DA:465,0
DA:466,0
DA:475,0
DA:479,0
DA:480,0
DA:660,0
DA:661,0
DA:662,0
DA:799,0
DA:808,0
DA:809,0
DA:989,0
DA:990,0
DA:991,0
DA:1017,0
DA:1018,0
DA:1019,0
DA:1021,0
DA:1023,0
DA:1108,0
DA:1112,0
DA:1113,0
DA:1148,0
DA:1149,0
DA:1150,0
DA:1151,0
DA:1152,0
LF:42
LH:0
end_of_record
TN:
SF:/usr/include/gtest/gtest.h
FN:1359,1365,_ZN7testing8internal18CmpHelperEQFailureIN2sf5ColorES3_EENS_15AssertionResultEPKcS6_RKT_RKT0_
FN:1359,1365,_ZN7testing8internal18CmpHelperEQFailureINSt7__cxx1112basic_stringIcSt11char_traitsIcESaIcEEEA11_cEENS_15AssertionResultEPKcSB_RKT_RKT0_
FN:1359,1365,_ZN7testing8internal18CmpHelperEQFailureINSt7__cxx1112basic_stringIcSt11char_traitsIcESaIcEEEA7_cEENS_15AssertionResultEPKcSB_RKT_RKT0_
FN:1359,1365,_ZN7testing8internal18CmpHelperEQFailureIccEENS_15AssertionResultEPKcS4_RKT_RKT0_
FN:1376,1384,_ZN7testing8internal11CmpHelperEQIN2sf5ColorES3_EENS_15AssertionResultEPKcS6_RKT_RKT0_
FN:1376,1384,_ZN7testing8internal11CmpHelperEQINSt7__cxx1112basic_stringIcSt11char_traitsIcESaIcEEEA11_cEENS_15AssertionResultEPKcSB_RKT_RKT0_
FN:1376,1384,_ZN7testing8internal11CmpHelperEQINSt7__cxx1112basic_stringIcSt11char_traitsIcESaIcEEEA7_cEENS_15AssertionResultEPKcSB_RKT_RKT0_
FN:1376,1384,_ZN7testing8internal11CmpHelperEQIccEENS_15AssertionResultEPKcS4_RKT_RKT0_
FN:1395,1399,_ZN7testing8internal8EqHelper7CompareIN2sf5ColorES4_LPv0EEENS_15AssertionResultEPKcS8_RKT_RKT0_
FN:1395,1399,_ZN7testing8internal8EqHelper7CompareINSt7__cxx1112basic_stringIcSt11char_traitsIcESaIcEEEA11_cLPv0EEENS_15AssertionResultEPKcSD_RKT_RKT0_
FN:1395,1399,_ZN7testing8internal8EqHelper7CompareINSt7__cxx1112basic_stringIcSt11char_traitsIcESaIcEEEA7_cLPv0EEENS_15AssertionResultEPKcSD_RKT_RKT0_
FN:1395,1399,_ZN7testing8internal8EqHelper7CompareIccLPv0EEENS_15AssertionResultEPKcS6_RKT_RKT0_
FN:1567,1587,_ZN7testing8internal24CmpHelperFloatingPointEQIfEENS_15AssertionResultEPKcS4_T_S5_
FN:256,256,_ZN7testing4Test14SetUpTestSuiteEv
FN:264,264,_ZN7testing4Test17TearDownTestSuiteEv
FN:269,269,_ZN7testing4Test16TearDownTestCaseEv
FN:270,270,_ZN7testing4Test13SetUpTestCaseEv
FN:357,357,_ZN7testing4Test5SetupEv
FNDA:0,_ZN7testing8internal18CmpHelperEQFailureIN2sf5ColorES3_EENS_15AssertionResultEPKcS6_RKT_RKT0_
FNDA:0,_ZN7testing8internal18CmpHelperEQFailureINSt7__cxx1112basic_stringIcSt11char_traitsIcESaIcEEEA11_cEENS_15AssertionResultEPKcSB_RKT_RKT0_
FNDA:0,_ZN7testing8internal18CmpHelperEQFailureINSt7__cxx1112basic_stringIcSt11char_traitsIcESaIcEEEA7_cEENS_15AssertionResultEPKcSB_RKT_RKT0_
FNDA:0,_ZN7testing8internal18CmpHelperEQFailureIccEENS_15AssertionResultEPKcS4_RKT_RKT0_
FNDA:2,_ZN7testing8internal11CmpHelperEQIN2sf5ColorES3_EENS_15AssertionResultEPKcS6_RKT_RKT0_
FNDA:2,_ZN7testing8internal11CmpHelperEQINSt7__cxx1112basic_stringIcSt11char_traitsIcESaIcEEEA11_cEENS_15AssertionResultEPKcSB_RKT_RKT0_
FNDA:1,_ZN7testing8internal11CmpHelperEQINSt7__cxx1112basic_stringIcSt11char_traitsIcESaIcEEEA7_cEENS_15AssertionResultEPKcSB_RKT_RKT0_
FNDA:5,_ZN7testing8internal11CmpHelperEQIccEENS_15AssertionResultEPKcS4_RKT_RKT0_
FNDA:2,_ZN7testing8internal8EqHelper7CompareIN2sf5ColorES4_LPv0EEENS_15AssertionResultEPKcS8_RKT_RKT0_
FNDA:2,_ZN7testing8internal8EqHelper7CompareINSt7__cxx1112basic_stringIcSt11char_traitsIcESaIcEEEA11_cLPv0EEENS_15AssertionResultEPKcSD_RKT_RKT0_
FNDA:1,_ZN7testing8internal8EqHelper7CompareINSt7__cxx1112basic_stringIcSt11char_traitsIcESaIcEEEA7_cLPv0EEENS_15AssertionResultEPKcSD_RKT_RKT0_
FNDA:5,_ZN7testing8internal8EqHelper7CompareIccLPv0EEENS_15AssertionResultEPKcS6_RKT_RKT0_
FNDA:2,_ZN7testing8internal24CmpHelperFloatingPointEQIfEENS_15AssertionResultEPKcS4_T_S5_
FNDA:0,_ZN7testing4Test14SetUpTestSuiteEv
FNDA:0,_ZN7testing4Test17TearDownTestSuiteEv
FNDA:0,_ZN7testing4Test16TearDownTestCaseEv
FNDA:0,_ZN7testing4Test13SetUpTestCaseEv
FNDA:0,_ZN7testing4Test5SetupEv
FNF:18
FNH:9
DA:256,0
DA:264,0
DA:269,0
DA:270,0
DA:357,0
DA:1359,0
DA:1364,0
DA:1376,10
DA:1379,10
DA:1380,10
DA:1383,0
DA:1395,10
DA:1398,10
DA:1567,2
DA:1570,2
DA:1572,2
DA:1573,2
DA:1576,0
DA:1577,0
DA:1578,0
DA:1580,0
DA:1581,0
DA:1582,0
DA:1586,0
DA:1587,0
LF:25
LH:9
end_of_record
TN:
SF:/usr/include/gtest/internal/gtest-internal.h
FN:294,294,_ZN7testing8internal13FloatingPointIfEC2ERKf
FN:316,316,_ZNK7testing8internal13FloatingPointIfE13exponent_bitsEv
FN:319,319,_ZNK7testing8internal13FloatingPointIfE13fraction_bitsEv
FN:325,329,_ZNK7testing8internal13FloatingPointIfE6is_nanEv
FN:337,344,_ZNK7testing8internal13FloatingPointIfE12AlmostEqualsERKS2_
FN:368,376,_ZN7testing8internal13FloatingPointIfE24SignAndMagnitudeToBiasedERKj
FN:380,385,_ZN7testing8internal13FloatingPointIfE38DistanceBetweenSignAndMagnitudeNumbersERKjS4_
FN:438,438,_ZN7testing8internal15TestFactoryBaseD0Ev
FN:438,438,_ZN7testing8internal15TestFactoryBaseD2Ev
FN:445,445,_ZN7testing8internal15TestFactoryBaseC2Ev
FN:457,457,_ZN7testing8internal15TestFactoryImplI26ConsoleTest_GetWindow_TestE10CreateTestEv
FN:457,457,_ZN7testing8internal15TestFactoryImplI26ConsoleTest_SetRegion_TestE10CreateTestEv
FN:457,457,_ZN7testing8internal15TestFactoryImplI30ConsoleTest_CreateConsole_TestE10CreateTestEv
FN:457,457,_ZN7testing8internal15TestFactoryImplI30SfUtilTest_ToStringClosed_TestE10CreateTestEv
FN:457,457,_ZN7testing8internal15TestFactoryImplI31ConsoleTest_SetAndGetGlyph_TestE10CreateTestEv
FN:457,457,_ZN7testing8internal15TestFactoryImplI31UtilTest_DistanceSamePoint_TestE10CreateTestEv
FN:457,457,_ZN7testing8internal15TestFactoryImplI33UtilTest_DistancePythagorean_TestE10CreateTestEv
FN:457,457,_ZN7testing8internal15TestFactoryImplI33UtilTest_HaltCatchFireThrows_TestE10CreateTestEv
FN:457,457,_ZN7testing8internal15TestFactoryImplI34SfUtilTest_ToStringKeyPressed_TestE10CreateTestEv
FN:457,457,_ZN7testing8internal15TestFactoryImplI34SfUtilTest_ToStringMouseMoved_TestE10CreateTestEv
FN:457,457,_ZN7testing8internal15TestFactoryImplI36ConsoleTest_GetGlyphOutOfBounds_TestE10CreateTestEv
FN:457,457,_ZN7testing8internal15TestFactoryImplI36ConsoleTest_SetGlyphOutOfBounds_TestE10CreateTestEv
FN:478,479,_ZN7testing8internal12CodeLocationC2ERKNSt7__cxx1112basic_stringIcSt11char_traitsIcESaIcEEEi
FN:491,494,_ZN7testing8internal19GetNotDefaultOrNullEPFvvES2_
FN:506,525,_ZN7testing8internal16SuiteApiResolverINS_4TestEE19GetSetUpCaseOrSuiteEPKci
FN:527,546,_ZN7testing8internal16SuiteApiResolverINS_4TestEE22GetTearDownCaseOrSuiteEPKci
FN:843,843,_ZN7testing8internal14TrueWithStringC2Ev
FN:846,846,_ZNK7testing8internal14TrueWithStringcvbEv
FNDA:4,_ZN7testing8internal13FloatingPointIfEC2ERKf
FNDA:4,_ZNK7testing8internal13FloatingPointIfE13exponent_bitsEv
FNDA:0,_ZNK7testing8internal13FloatingPointIfE13fraction_bitsEv
FNDA:4,_ZNK7testing8internal13FloatingPointIfE6is_nanEv
FNDA:2,_ZNK7testing8internal13FloatingPointIfE12AlmostEqualsERKS2_
FNDA:4,_ZN7testing8internal13FloatingPointIfE24SignAndMagnitudeToBiasedERKj
FNDA:2,_ZN7testing8internal13FloatingPointIfE38DistanceBetweenSignAndMagnitudeNumbersERKjS4_
FNDA:0,_ZN7testing8internal15TestFactoryBaseD0Ev
FNDA:12,_ZN7testing8internal15TestFactoryBaseD2Ev
FNDA:12,_ZN7testing8internal15TestFactoryBaseC2Ev
FNDA:1,_ZN7testing8internal15TestFactoryImplI26ConsoleTest_GetWindow_TestE10CreateTestEv
FNDA:1,_ZN7testing8internal15TestFactoryImplI26ConsoleTest_SetRegion_TestE10CreateTestEv
FNDA:1,_ZN7testing8internal15TestFactoryImplI30ConsoleTest_CreateConsole_TestE10CreateTestEv
FNDA:1,_ZN7testing8internal15TestFactoryImplI30SfUtilTest_ToStringClosed_TestE10CreateTestEv
FNDA:1,_ZN7testing8internal15TestFactoryImplI31ConsoleTest_SetAndGetGlyph_TestE10CreateTestEv
FNDA:1,_ZN7testing8internal15TestFactoryImplI31UtilTest_DistanceSamePoint_TestE10CreateTestEv
FNDA:1,_ZN7testing8internal15TestFactoryImplI33UtilTest_DistancePythagorean_TestE10CreateTestEv
FNDA:1,_ZN7testing8internal15TestFactoryImplI33UtilTest_HaltCatchFireThrows_TestE10CreateTestEv
FNDA:1,_ZN7testing8internal15TestFactoryImplI34SfUtilTest_ToStringKeyPressed_TestE10CreateTestEv
FNDA:1,_ZN7testing8internal15TestFactoryImplI34SfUtilTest_ToStringMouseMoved_TestE10CreateTestEv
FNDA:1,_ZN7testing8internal15TestFactoryImplI36ConsoleTest_GetGlyphOutOfBounds_TestE10CreateTestEv
FNDA:1,_ZN7testing8internal15TestFactoryImplI36ConsoleTest_SetGlyphOutOfBounds_TestE10CreateTestEv
FNDA:12,_ZN7testing8internal12CodeLocationC2ERKNSt7__cxx1112basic_stringIcSt11char_traitsIcESaIcEEEi
FNDA:48,_ZN7testing8internal19GetNotDefaultOrNullEPFvvES2_
FNDA:12,_ZN7testing8internal16SuiteApiResolverINS_4TestEE19GetSetUpCaseOrSuiteEPKci
FNDA:12,_ZN7testing8internal16SuiteApiResolverINS_4TestEE22GetTearDownCaseOrSuiteEPKci
FNDA:5,_ZN7testing8internal14TrueWithStringC2Ev
FNDA:5,_ZNK7testing8internal14TrueWithStringcvbEv
FNF:28
FNH:26
DA:294,4
DA:316,4
DA:319,0
DA:325,4
DA:328,4
DA:337,2
DA:340,2
DA:342,2
DA:343,2
DA:368,4
DA:369,4
DA:371,0
DA:374,4
DA:380,2
DA:382,2
DA:383,2
DA:384,2
DA:438,12
DA:445,12
DA:457,12
DA:478,12
DA:479,12
DA:491,48
DA:493,48
DA:506,12
DA:510,12
DA:512,12
DA:514,12
DA:517,0
DA:519,12
DA:527,12
DA:531,12
DA:533,12
DA:535,12
DA:538,0
DA:540,12
DA:843,5
DA:846,5
LF:38
LH:34
end_of_record
TN:
SF:/usr/include/gtest/internal/gtest-port.h
FN:1042,1042,_ZN7testing8internal8GTestLog9GetStreamEv
FNDA:0,_ZN7testing8internal8GTestLog9GetStreamEv
FNF:1
FNH:0
DA:1042,0
LF:1
LH:0
end_of_record
TN:
SF:/usr/include/gtest/internal/gtest-type-util.h
FN:61,87,_ZN7testing8internal31CanonicalizeForStdLibVersioningENSt7__cxx1112basic_stringIcSt11char_traitsIcESaIcEEE
FN:91,121,_ZN7testing8internal11GetTypeNameB5cxx11ERKSt9type_info
FNDA:0,_ZN7testing8internal31CanonicalizeForStdLibVersioningENSt7__cxx1112basic_stringIcSt11char_traitsIcESaIcEEE
FNDA:0,_ZN7testing8internal11GetTypeNameB5cxx11ERKSt9type_info
FNF:2
FNH:0
DA:61,0
DA:63,0
DA:64,0
DA:65,0
DA:67,0
DA:75,0
DA:78,0
DA:79,0
DA:80,0
DA:83,0
DA:84,0
DA:86,0
DA:91,0
DA:92,0
DA:94,0
DA:100,0
DA:101,0
DA:102,0
DA:103,0
DA:121,0
LF:20
LH:0
end_of_record
TN:
SF:/usr/include/x86_64-linux-gnu/c++/13/bits/c++config.h
FN:540,551,_ZSt23__is_constant_evaluatedv
FNDA:4061,_ZSt23__is_constant_evaluatedv
FNF:1
FNH:1
DA:540,4061
DA:547,4061
LF:2
LH:2
end_of_record
